	.section	__TEXT,__text,regular,pure_instructions
	.macosx_version_min 10, 14
	.globl	_generate_music         ## -- Begin function generate_music
	.p2align	4, 0x90
_generate_music:                        ## @generate_music
	.cfi_startproc
## %bb.0:                               ## %entry
	pushq	%rbx
	.cfi_def_cfa_offset 16
	subq	$32, %rsp
	.cfi_def_cfa_offset 48
	.cfi_offset %rbx, -16
	movl	%ecx, 28(%rsp)
	movl	%edx, 24(%rsp)
	movq	%rsi, 16(%rsp)
	movq	%rdi, 8(%rsp)
	leaq	L_123(%rip), %rdi
	xorl	%eax, %eax
	callq	_puts
	movl	28(%rsp), %esi
	leaq	L_fmt(%rip), %rbx
	movq	%rbx, %rdi
	xorl	%eax, %eax
	callq	_printf
	movl	24(%rsp), %esi
	movq	%rbx, %rdi
	xorl	%eax, %eax
	callq	_printf
	movl	$0, 4(%rsp)
	jmp	LBB0_1
	.p2align	4, 0x90
LBB0_2:                                 ## %while_body
                                        ##   in Loop: Header=BB0_1 Depth=1
	movq	16(%rsp), %rax
	movslq	4(%rsp), %rcx
	movq	(%rax,%rcx,8), %rdi
	xorl	%eax, %eax
	callq	_pitch_to_int
	movq	%rbx, %rdi
	movl	%eax, %esi
	xorl	%eax, %eax
	callq	_printf
	movq	8(%rsp), %rax
	movslq	4(%rsp), %rcx
	movl	(%rax,%rcx,4), %esi
	movq	%rbx, %rdi
	xorl	%eax, %eax
	callq	_printf
	incl	4(%rsp)
LBB0_1:                                 ## %while
                                        ## =>This Inner Loop Header: Depth=1
	movl	4(%rsp), %eax
	cmpl	24(%rsp), %eax
	jl	LBB0_2
## %bb.3:                               ## %merge
	addq	$32, %rsp
	popq	%rbx
	retq
	.cfi_endproc
                                        ## -- End function
	.globl	_build_track            ## -- Begin function build_track
	.p2align	4, 0x90
_build_track:                           ## @build_track
	.cfi_startproc
## %bb.0:                               ## %entry
	pushq	%rbx
	.cfi_def_cfa_offset 16
	subq	$80, %rsp
	.cfi_def_cfa_offset 96
	.cfi_offset %rbx, -16
	movq	%rdi, %rbx
	movl	%esi, 20(%rsp)
	movl	%edx, 16(%rsp)
	movq	%rcx, 48(%rsp)
	movq	%r8, 40(%rsp)
	movl	$160, %edi
	callq	_malloc
	leaq	"L_4#"(%rip), %rcx
	movq	%rcx, (%rax)
	leaq	"L_4#.4"(%rip), %rcx
	movq	%rcx, 8(%rax)
	leaq	"L_4#.5"(%rip), %rcx
	movq	%rcx, 16(%rax)
	leaq	"L_4#.6"(%rip), %rcx
	movq	%rcx, 24(%rax)
	leaq	"L_4#.7"(%rip), %rcx
	movq	%rcx, 32(%rax)
	leaq	"L_4#.8"(%rip), %rcx
	movq	%rcx, 40(%rax)
	leaq	"L_4#.9"(%rip), %rcx
	movq	%rcx, 48(%rax)
	leaq	"L_4#.10"(%rip), %rcx
	movq	%rcx, 56(%rax)
	leaq	"L_4#.11"(%rip), %rcx
	movq	%rcx, 64(%rax)
	leaq	"L_4#.12"(%rip), %rcx
	movq	%rcx, 72(%rax)
	leaq	"L_4#.13"(%rip), %rcx
	movq	%rcx, 80(%rax)
	leaq	"L_4#.14"(%rip), %rcx
	movq	%rcx, 88(%rax)
	leaq	"L_4#.15"(%rip), %rcx
	movq	%rcx, 96(%rax)
	leaq	"L_4#.16"(%rip), %rcx
	movq	%rcx, 104(%rax)
	leaq	"L_4#.17"(%rip), %rcx
	movq	%rcx, 112(%rax)
	leaq	"L_4#.18"(%rip), %rcx
	movq	%rcx, 120(%rax)
	leaq	"L_4#.19"(%rip), %rcx
	movq	%rcx, 128(%rax)
	leaq	"L_4#.20"(%rip), %rcx
	movq	%rcx, 136(%rax)
	leaq	"L_4#.21"(%rip), %rcx
	movq	%rcx, 144(%rax)
	leaq	"L_4#.22"(%rip), %rcx
	movq	%rcx, 152(%rax)
	movq	%rax, 32(%rsp)
	movl	$80, %edi
	callq	_malloc
	movq	$0, (%rax)
	movq	$0, 8(%rax)
	movq	$0, 16(%rax)
	movq	$0, 24(%rax)
	movq	$0, 32(%rax)
	movq	$0, 40(%rax)
	movq	$0, 48(%rax)
	movq	$0, 56(%rax)
	movq	$0, 64(%rax)
	movq	$0, 72(%rax)
	movq	%rax, 24(%rsp)
	movl	20(%rsp), %eax
	movl	%eax, 76(%rsp)
	movl	16(%rsp), %eax
	movl	%eax, 72(%rsp)
	movl	$0, 12(%rsp)
	jmp	LBB1_1
	.p2align	4, 0x90
LBB1_2:                                 ## %while_body
                                        ##   in Loop: Header=BB1_1 Depth=1
	movq	48(%rsp), %rax
	movslq	12(%rsp), %rcx
	movq	(%rax,%rcx,8), %rax
	movq	32(%rsp), %rdx
	movq	%rax, (%rdx,%rcx,8)
	movq	40(%rsp), %rax
	movslq	12(%rsp), %rcx
	movl	(%rax,%rcx,4), %eax
	movq	24(%rsp), %rdx
	movl	%eax, (%rdx,%rcx,4)
	incl	12(%rsp)
LBB1_1:                                 ## %while
                                        ## =>This Inner Loop Header: Depth=1
	movl	12(%rsp), %eax
	cmpl	16(%rsp), %eax
	jl	LBB1_2
## %bb.3:                               ## %merge
	movq	32(%rsp), %rax
	movq	%rax, 64(%rsp)
	movq	24(%rsp), %rcx
	movq	%rcx, 56(%rsp)
	movq	72(%rsp), %rdx
	movq	%rdx, 16(%rbx)
	movq	%rax, 8(%rbx)
	movq	%rcx, (%rbx)
	movq	%rbx, %rax
	addq	$80, %rsp
	popq	%rbx
	retq
	.cfi_endproc
                                        ## -- End function
	.globl	_main                   ## -- Begin function main
	.p2align	4, 0x90
_main:                                  ## @main
	.cfi_startproc
## %bb.0:                               ## %entry
	pushq	%r15
	.cfi_def_cfa_offset 16
	pushq	%r14
	.cfi_def_cfa_offset 24
	pushq	%rbx
	.cfi_def_cfa_offset 32
	subq	$144, %rsp
	.cfi_def_cfa_offset 176
	.cfi_offset %rbx, -32
	.cfi_offset %r14, -24
	.cfi_offset %r15, -16
	movl	$16, %edi
	callq	_malloc
	leaq	"L_4#.25"(%rip), %rcx
	movq	%rcx, (%rax)
	leaq	"L_4#.26"(%rip), %rcx
	movq	%rcx, 8(%rax)
	movq	%rax, 24(%rsp)
	movl	$48, %edi
	callq	_malloc
	leaq	"L_4#.27"(%rip), %rcx
	movq	%rcx, (%rax)
	leaq	"L_4#.28"(%rip), %rcx
	movq	%rcx, 8(%rax)
	leaq	"L_4#.29"(%rip), %rcx
	movq	%rcx, 16(%rax)
	leaq	"L_4#.30"(%rip), %rcx
	movq	%rcx, 24(%rax)
	leaq	"L_4#.31"(%rip), %rcx
	movq	%rcx, 32(%rax)
	leaq	"L_4#.32"(%rip), %rcx
	movq	%rcx, 40(%rax)
	movq	%rax, 8(%rsp)
	movl	$40, %edi
	callq	_malloc
	leaq	"L_4#.33"(%rip), %rcx
	movq	%rcx, (%rax)
	leaq	"L_4#.34"(%rip), %rcx
	movq	%rcx, 8(%rax)
	leaq	"L_4#.35"(%rip), %rcx
	movq	%rcx, 16(%rax)
	leaq	"L_4#.36"(%rip), %rcx
	movq	%rcx, 24(%rax)
	leaq	"L_4#.37"(%rip), %rcx
	movq	%rcx, 32(%rax)
	movq	%rax, 40(%rsp)
	movl	$40, %edi
	callq	_malloc
	leaq	"L_4#.38"(%rip), %rcx
	movq	%rcx, (%rax)
	leaq	"L_4#.39"(%rip), %rcx
	movq	%rcx, 8(%rax)
	leaq	"L_4#.40"(%rip), %rcx
	movq	%rcx, 16(%rax)
	leaq	"L_4#.41"(%rip), %rcx
	movq	%rcx, 24(%rax)
	leaq	"L_4#.42"(%rip), %rcx
	movq	%rcx, 32(%rax)
	movq	%rax, 56(%rsp)
	movl	$8, %edi
	callq	_malloc
	leaq	"L_4#.43"(%rip), %rcx
	movq	%rcx, (%rax)
	movq	%rax, 80(%rsp)
	movl	$8, %edi
	callq	_malloc
	movabsq	$68719476752, %rbx      ## imm = 0x1000000010
	movq	%rbx, (%rax)
	movq	%rax, 16(%rsp)
	movl	$24, %edi
	callq	_malloc
	movq	%rbx, (%rax)
	movq	%rbx, 8(%rax)
	movq	%rbx, 16(%rax)
	movq	%rax, (%rsp)
	movl	$20, %edi
	callq	_malloc
	movabsq	$68719476744, %r14      ## imm = 0x1000000008
	movq	%r14, (%rax)
	movq	%rbx, 8(%rax)
	movl	$16, 16(%rax)
	movq	%rax, 32(%rsp)
	movl	$20, %edi
	callq	_malloc
	movq	%r14, (%rax)
	movq	%rbx, 8(%rax)
	movl	$16, 16(%rax)
	movq	%rax, 48(%rsp)
	movl	$4, %edi
	callq	_malloc
	movl	$8, (%rax)
	movq	%rax, 72(%rsp)
	movl	$152, %edi
	callq	_malloc
	movq	%rax, %r14
	movl	$144, %edi
	callq	_malloc
	movq	%rax, %r15
	movl	$104, %edi
	callq	_malloc
	movq	%rax, %rbx
	movl	$64, %edi
	callq	_malloc
	movq	24(%rsp), %rcx
	movq	(%rcx), %rcx
	movq	%rcx, (%rax)
	movq	24(%rsp), %rcx
	movq	8(%rcx), %rcx
	movq	%rcx, 8(%rax)
	movq	8(%rsp), %rcx
	movq	(%rcx), %rcx
	movq	%rcx, 16(%rax)
	movq	8(%rsp), %rcx
	movq	8(%rcx), %rcx
	movq	%rcx, 24(%rax)
	movq	8(%rsp), %rcx
	movq	16(%rcx), %rcx
	movq	%rcx, 32(%rax)
	movq	8(%rsp), %rcx
	movq	24(%rcx), %rcx
	movq	%rcx, 40(%rax)
	movq	8(%rsp), %rcx
	movq	32(%rcx), %rcx
	movq	%rcx, 48(%rax)
	movq	8(%rsp), %rcx
	movq	40(%rcx), %rcx
	movq	%rcx, 56(%rax)
	movq	(%rax), %rax
	movq	%rax, (%rbx)
	movl	$64, %edi
	callq	_malloc
	movq	24(%rsp), %rcx
	movq	(%rcx), %rcx
	movq	%rcx, (%rax)
	movq	24(%rsp), %rcx
	movq	8(%rcx), %rcx
	movq	%rcx, 8(%rax)
	movq	8(%rsp), %rcx
	movq	(%rcx), %rcx
	movq	%rcx, 16(%rax)
	movq	8(%rsp), %rcx
	movq	8(%rcx), %rcx
	movq	%rcx, 24(%rax)
	movq	8(%rsp), %rcx
	movq	16(%rcx), %rcx
	movq	%rcx, 32(%rax)
	movq	8(%rsp), %rcx
	movq	24(%rcx), %rcx
	movq	%rcx, 40(%rax)
	movq	8(%rsp), %rcx
	movq	32(%rcx), %rcx
	movq	%rcx, 48(%rax)
	movq	8(%rsp), %rcx
	movq	40(%rcx), %rcx
	movq	%rcx, 56(%rax)
	movq	8(%rax), %rax
	movq	%rax, 8(%rbx)
	movl	$64, %edi
	callq	_malloc
	movq	24(%rsp), %rcx
	movq	(%rcx), %rcx
	movq	%rcx, (%rax)
	movq	24(%rsp), %rcx
	movq	8(%rcx), %rcx
	movq	%rcx, 8(%rax)
	movq	8(%rsp), %rcx
	movq	(%rcx), %rcx
	movq	%rcx, 16(%rax)
	movq	8(%rsp), %rcx
	movq	8(%rcx), %rcx
	movq	%rcx, 24(%rax)
	movq	8(%rsp), %rcx
	movq	16(%rcx), %rcx
	movq	%rcx, 32(%rax)
	movq	8(%rsp), %rcx
	movq	24(%rcx), %rcx
	movq	%rcx, 40(%rax)
	movq	8(%rsp), %rcx
	movq	32(%rcx), %rcx
	movq	%rcx, 48(%rax)
	movq	8(%rsp), %rcx
	movq	40(%rcx), %rcx
	movq	%rcx, 56(%rax)
	movq	16(%rax), %rax
	movq	%rax, 16(%rbx)
	movl	$64, %edi
	callq	_malloc
	movq	24(%rsp), %rcx
	movq	(%rcx), %rcx
	movq	%rcx, (%rax)
	movq	24(%rsp), %rcx
	movq	8(%rcx), %rcx
	movq	%rcx, 8(%rax)
	movq	8(%rsp), %rcx
	movq	(%rcx), %rcx
	movq	%rcx, 16(%rax)
	movq	8(%rsp), %rcx
	movq	8(%rcx), %rcx
	movq	%rcx, 24(%rax)
	movq	8(%rsp), %rdx
	movq	16(%rdx), %rdx
	movq	%rdx, 32(%rax)
	movq	8(%rsp), %rdx
	movq	24(%rdx), %rdx
	movq	%rdx, 40(%rax)
	movq	8(%rsp), %rdx
	movq	32(%rdx), %rdx
	movq	%rdx, 48(%rax)
	movq	8(%rsp), %rdx
	movq	40(%rdx), %rdx
	movq	%rdx, 56(%rax)
	movq	%rcx, 24(%rbx)
	movl	$64, %edi
	callq	_malloc
	movq	24(%rsp), %rcx
	movq	(%rcx), %rcx
	movq	%rcx, (%rax)
	movq	24(%rsp), %rcx
	movq	8(%rcx), %rcx
	movq	%rcx, 8(%rax)
	movq	8(%rsp), %rcx
	movq	(%rcx), %rcx
	movq	%rcx, 16(%rax)
	movq	8(%rsp), %rcx
	movq	8(%rcx), %rcx
	movq	%rcx, 24(%rax)
	movq	8(%rsp), %rcx
	movq	16(%rcx), %rcx
	movq	%rcx, 32(%rax)
	movq	8(%rsp), %rdx
	movq	24(%rdx), %rdx
	movq	%rdx, 40(%rax)
	movq	8(%rsp), %rdx
	movq	32(%rdx), %rdx
	movq	%rdx, 48(%rax)
	movq	8(%rsp), %rdx
	movq	40(%rdx), %rdx
	movq	%rdx, 56(%rax)
	movq	%rcx, 32(%rbx)
	movl	$64, %edi
	callq	_malloc
	movq	24(%rsp), %rcx
	movq	(%rcx), %rcx
	movq	%rcx, (%rax)
	movq	24(%rsp), %rcx
	movq	8(%rcx), %rcx
	movq	%rcx, 8(%rax)
	movq	8(%rsp), %rcx
	movq	(%rcx), %rcx
	movq	%rcx, 16(%rax)
	movq	8(%rsp), %rcx
	movq	8(%rcx), %rcx
	movq	%rcx, 24(%rax)
	movq	8(%rsp), %rcx
	movq	16(%rcx), %rcx
	movq	%rcx, 32(%rax)
	movq	8(%rsp), %rcx
	movq	24(%rcx), %rcx
	movq	%rcx, 40(%rax)
	movq	8(%rsp), %rdx
	movq	32(%rdx), %rdx
	movq	%rdx, 48(%rax)
	movq	8(%rsp), %rdx
	movq	40(%rdx), %rdx
	movq	%rdx, 56(%rax)
	movq	%rcx, 40(%rbx)
	movl	$64, %edi
	callq	_malloc
	movq	24(%rsp), %rcx
	movq	(%rcx), %rcx
	movq	%rcx, (%rax)
	movq	24(%rsp), %rcx
	movq	8(%rcx), %rcx
	movq	%rcx, 8(%rax)
	movq	8(%rsp), %rcx
	movq	(%rcx), %rcx
	movq	%rcx, 16(%rax)
	movq	8(%rsp), %rcx
	movq	8(%rcx), %rcx
	movq	%rcx, 24(%rax)
	movq	8(%rsp), %rcx
	movq	16(%rcx), %rcx
	movq	%rcx, 32(%rax)
	movq	8(%rsp), %rcx
	movq	24(%rcx), %rcx
	movq	%rcx, 40(%rax)
	movq	8(%rsp), %rcx
	movq	32(%rcx), %rcx
	movq	%rcx, 48(%rax)
	movq	8(%rsp), %rdx
	movq	40(%rdx), %rdx
	movq	%rdx, 56(%rax)
	movq	%rcx, 48(%rbx)
	movl	$64, %edi
	callq	_malloc
	movq	24(%rsp), %rcx
	movq	(%rcx), %rcx
	movq	%rcx, (%rax)
	movq	24(%rsp), %rcx
	movq	8(%rcx), %rcx
	movq	%rcx, 8(%rax)
	movq	8(%rsp), %rcx
	movq	(%rcx), %rcx
	movq	%rcx, 16(%rax)
	movq	8(%rsp), %rcx
	movq	8(%rcx), %rcx
	movq	%rcx, 24(%rax)
	movq	8(%rsp), %rcx
	movq	16(%rcx), %rcx
	movq	%rcx, 32(%rax)
	movq	8(%rsp), %rcx
	movq	24(%rcx), %rcx
	movq	%rcx, 40(%rax)
	movq	8(%rsp), %rcx
	movq	32(%rcx), %rcx
	movq	%rcx, 48(%rax)
	movq	8(%rsp), %rcx
	movq	40(%rcx), %rcx
	movq	%rcx, 56(%rax)
	movq	%rcx, 56(%rbx)
	movq	40(%rsp), %rax
	movq	(%rax), %rax
	movq	%rax, 64(%rbx)
	movq	40(%rsp), %rax
	movq	8(%rax), %rax
	movq	%rax, 72(%rbx)
	movq	40(%rsp), %rax
	movq	16(%rax), %rax
	movq	%rax, 80(%rbx)
	movq	40(%rsp), %rax
	movq	24(%rax), %rax
	movq	%rax, 88(%rbx)
	movq	40(%rsp), %rax
	movq	32(%rax), %rax
	movq	%rax, 96(%rbx)
	movq	(%rbx), %rax
	movq	%rax, (%r15)
	movl	$104, %edi
	callq	_malloc
	movq	%rax, %rbx
	movl	$64, %edi
	callq	_malloc
	movq	24(%rsp), %rcx
	movq	(%rcx), %rcx
	movq	%rcx, (%rax)
	movq	24(%rsp), %rcx
	movq	8(%rcx), %rcx
	movq	%rcx, 8(%rax)
	movq	8(%rsp), %rcx
	movq	(%rcx), %rcx
	movq	%rcx, 16(%rax)
	movq	8(%rsp), %rcx
	movq	8(%rcx), %rcx
	movq	%rcx, 24(%rax)
	movq	8(%rsp), %rcx
	movq	16(%rcx), %rcx
	movq	%rcx, 32(%rax)
	movq	8(%rsp), %rcx
	movq	24(%rcx), %rcx
	movq	%rcx, 40(%rax)
	movq	8(%rsp), %rcx
	movq	32(%rcx), %rcx
	movq	%rcx, 48(%rax)
	movq	8(%rsp), %rcx
	movq	40(%rcx), %rcx
	movq	%rcx, 56(%rax)
	movq	(%rax), %rax
	movq	%rax, (%rbx)
	movl	$64, %edi
	callq	_malloc
	movq	24(%rsp), %rcx
	movq	(%rcx), %rcx
	movq	%rcx, (%rax)
	movq	24(%rsp), %rcx
	movq	8(%rcx), %rcx
	movq	%rcx, 8(%rax)
	movq	8(%rsp), %rcx
	movq	(%rcx), %rcx
	movq	%rcx, 16(%rax)
	movq	8(%rsp), %rcx
	movq	8(%rcx), %rcx
	movq	%rcx, 24(%rax)
	movq	8(%rsp), %rcx
	movq	16(%rcx), %rcx
	movq	%rcx, 32(%rax)
	movq	8(%rsp), %rcx
	movq	24(%rcx), %rcx
	movq	%rcx, 40(%rax)
	movq	8(%rsp), %rcx
	movq	32(%rcx), %rcx
	movq	%rcx, 48(%rax)
	movq	8(%rsp), %rcx
	movq	40(%rcx), %rcx
	movq	%rcx, 56(%rax)
	movq	8(%rax), %rax
	movq	%rax, 8(%rbx)
	movl	$64, %edi
	callq	_malloc
	movq	24(%rsp), %rcx
	movq	(%rcx), %rcx
	movq	%rcx, (%rax)
	movq	24(%rsp), %rcx
	movq	8(%rcx), %rcx
	movq	%rcx, 8(%rax)
	movq	8(%rsp), %rcx
	movq	(%rcx), %rcx
	movq	%rcx, 16(%rax)
	movq	8(%rsp), %rcx
	movq	8(%rcx), %rcx
	movq	%rcx, 24(%rax)
	movq	8(%rsp), %rcx
	movq	16(%rcx), %rcx
	movq	%rcx, 32(%rax)
	movq	8(%rsp), %rcx
	movq	24(%rcx), %rcx
	movq	%rcx, 40(%rax)
	movq	8(%rsp), %rcx
	movq	32(%rcx), %rcx
	movq	%rcx, 48(%rax)
	movq	8(%rsp), %rcx
	movq	40(%rcx), %rcx
	movq	%rcx, 56(%rax)
	movq	16(%rax), %rax
	movq	%rax, 16(%rbx)
	movl	$64, %edi
	callq	_malloc
	movq	24(%rsp), %rcx
	movq	(%rcx), %rcx
	movq	%rcx, (%rax)
	movq	24(%rsp), %rcx
	movq	8(%rcx), %rcx
	movq	%rcx, 8(%rax)
	movq	8(%rsp), %rcx
	movq	(%rcx), %rcx
	movq	%rcx, 16(%rax)
	movq	8(%rsp), %rcx
	movq	8(%rcx), %rcx
	movq	%rcx, 24(%rax)
	movq	8(%rsp), %rdx
	movq	16(%rdx), %rdx
	movq	%rdx, 32(%rax)
	movq	8(%rsp), %rdx
	movq	24(%rdx), %rdx
	movq	%rdx, 40(%rax)
	movq	8(%rsp), %rdx
	movq	32(%rdx), %rdx
	movq	%rdx, 48(%rax)
	movq	8(%rsp), %rdx
	movq	40(%rdx), %rdx
	movq	%rdx, 56(%rax)
	movq	%rcx, 24(%rbx)
	movl	$64, %edi
	callq	_malloc
	movq	24(%rsp), %rcx
	movq	(%rcx), %rcx
	movq	%rcx, (%rax)
	movq	24(%rsp), %rcx
	movq	8(%rcx), %rcx
	movq	%rcx, 8(%rax)
	movq	8(%rsp), %rcx
	movq	(%rcx), %rcx
	movq	%rcx, 16(%rax)
	movq	8(%rsp), %rcx
	movq	8(%rcx), %rcx
	movq	%rcx, 24(%rax)
	movq	8(%rsp), %rcx
	movq	16(%rcx), %rcx
	movq	%rcx, 32(%rax)
	movq	8(%rsp), %rdx
	movq	24(%rdx), %rdx
	movq	%rdx, 40(%rax)
	movq	8(%rsp), %rdx
	movq	32(%rdx), %rdx
	movq	%rdx, 48(%rax)
	movq	8(%rsp), %rdx
	movq	40(%rdx), %rdx
	movq	%rdx, 56(%rax)
	movq	%rcx, 32(%rbx)
	movl	$64, %edi
	callq	_malloc
	movq	24(%rsp), %rcx
	movq	(%rcx), %rcx
	movq	%rcx, (%rax)
	movq	24(%rsp), %rcx
	movq	8(%rcx), %rcx
	movq	%rcx, 8(%rax)
	movq	8(%rsp), %rcx
	movq	(%rcx), %rcx
	movq	%rcx, 16(%rax)
	movq	8(%rsp), %rcx
	movq	8(%rcx), %rcx
	movq	%rcx, 24(%rax)
	movq	8(%rsp), %rcx
	movq	16(%rcx), %rcx
	movq	%rcx, 32(%rax)
	movq	8(%rsp), %rcx
	movq	24(%rcx), %rcx
	movq	%rcx, 40(%rax)
	movq	8(%rsp), %rdx
	movq	32(%rdx), %rdx
	movq	%rdx, 48(%rax)
	movq	8(%rsp), %rdx
	movq	40(%rdx), %rdx
	movq	%rdx, 56(%rax)
	movq	%rcx, 40(%rbx)
	movl	$64, %edi
	callq	_malloc
	movq	24(%rsp), %rcx
	movq	(%rcx), %rcx
	movq	%rcx, (%rax)
	movq	24(%rsp), %rcx
	movq	8(%rcx), %rcx
	movq	%rcx, 8(%rax)
	movq	8(%rsp), %rcx
	movq	(%rcx), %rcx
	movq	%rcx, 16(%rax)
	movq	8(%rsp), %rcx
	movq	8(%rcx), %rcx
	movq	%rcx, 24(%rax)
	movq	8(%rsp), %rcx
	movq	16(%rcx), %rcx
	movq	%rcx, 32(%rax)
	movq	8(%rsp), %rcx
	movq	24(%rcx), %rcx
	movq	%rcx, 40(%rax)
	movq	8(%rsp), %rcx
	movq	32(%rcx), %rcx
	movq	%rcx, 48(%rax)
	movq	8(%rsp), %rdx
	movq	40(%rdx), %rdx
	movq	%rdx, 56(%rax)
	movq	%rcx, 48(%rbx)
	movl	$64, %edi
	callq	_malloc
	movq	24(%rsp), %rcx
	movq	(%rcx), %rcx
	movq	%rcx, (%rax)
	movq	24(%rsp), %rcx
	movq	8(%rcx), %rcx
	movq	%rcx, 8(%rax)
	movq	8(%rsp), %rcx
	movq	(%rcx), %rcx
	movq	%rcx, 16(%rax)
	movq	8(%rsp), %rcx
	movq	8(%rcx), %rcx
	movq	%rcx, 24(%rax)
	movq	8(%rsp), %rcx
	movq	16(%rcx), %rcx
	movq	%rcx, 32(%rax)
	movq	8(%rsp), %rcx
	movq	24(%rcx), %rcx
	movq	%rcx, 40(%rax)
	movq	8(%rsp), %rcx
	movq	32(%rcx), %rcx
	movq	%rcx, 48(%rax)
	movq	8(%rsp), %rcx
	movq	40(%rcx), %rcx
	movq	%rcx, 56(%rax)
	movq	%rcx, 56(%rbx)
	movq	40(%rsp), %rax
	movq	(%rax), %rax
	movq	%rax, 64(%rbx)
	movq	40(%rsp), %rax
	movq	8(%rax), %rax
	movq	%rax, 72(%rbx)
	movq	40(%rsp), %rax
	movq	16(%rax), %rax
	movq	%rax, 80(%rbx)
	movq	40(%rsp), %rax
	movq	24(%rax), %rax
	movq	%rax, 88(%rbx)
	movq	40(%rsp), %rax
	movq	32(%rax), %rax
	movq	%rax, 96(%rbx)
	movq	8(%rbx), %rax
	movq	%rax, 8(%r15)
	movl	$104, %edi
	callq	_malloc
	movq	%rax, %rbx
	movl	$64, %edi
	callq	_malloc
	movq	24(%rsp), %rcx
	movq	(%rcx), %rcx
	movq	%rcx, (%rax)
	movq	24(%rsp), %rcx
	movq	8(%rcx), %rcx
	movq	%rcx, 8(%rax)
	movq	8(%rsp), %rcx
	movq	(%rcx), %rcx
	movq	%rcx, 16(%rax)
	movq	8(%rsp), %rcx
	movq	8(%rcx), %rcx
	movq	%rcx, 24(%rax)
	movq	8(%rsp), %rcx
	movq	16(%rcx), %rcx
	movq	%rcx, 32(%rax)
	movq	8(%rsp), %rcx
	movq	24(%rcx), %rcx
	movq	%rcx, 40(%rax)
	movq	8(%rsp), %rcx
	movq	32(%rcx), %rcx
	movq	%rcx, 48(%rax)
	movq	8(%rsp), %rcx
	movq	40(%rcx), %rcx
	movq	%rcx, 56(%rax)
	movq	(%rax), %rax
	movq	%rax, (%rbx)
	movl	$64, %edi
	callq	_malloc
	movq	24(%rsp), %rcx
	movq	(%rcx), %rcx
	movq	%rcx, (%rax)
	movq	24(%rsp), %rcx
	movq	8(%rcx), %rcx
	movq	%rcx, 8(%rax)
	movq	8(%rsp), %rcx
	movq	(%rcx), %rcx
	movq	%rcx, 16(%rax)
	movq	8(%rsp), %rcx
	movq	8(%rcx), %rcx
	movq	%rcx, 24(%rax)
	movq	8(%rsp), %rcx
	movq	16(%rcx), %rcx
	movq	%rcx, 32(%rax)
	movq	8(%rsp), %rcx
	movq	24(%rcx), %rcx
	movq	%rcx, 40(%rax)
	movq	8(%rsp), %rcx
	movq	32(%rcx), %rcx
	movq	%rcx, 48(%rax)
	movq	8(%rsp), %rcx
	movq	40(%rcx), %rcx
	movq	%rcx, 56(%rax)
	movq	8(%rax), %rax
	movq	%rax, 8(%rbx)
	movl	$64, %edi
	callq	_malloc
	movq	24(%rsp), %rcx
	movq	(%rcx), %rcx
	movq	%rcx, (%rax)
	movq	24(%rsp), %rcx
	movq	8(%rcx), %rcx
	movq	%rcx, 8(%rax)
	movq	8(%rsp), %rcx
	movq	(%rcx), %rcx
	movq	%rcx, 16(%rax)
	movq	8(%rsp), %rcx
	movq	8(%rcx), %rcx
	movq	%rcx, 24(%rax)
	movq	8(%rsp), %rcx
	movq	16(%rcx), %rcx
	movq	%rcx, 32(%rax)
	movq	8(%rsp), %rcx
	movq	24(%rcx), %rcx
	movq	%rcx, 40(%rax)
	movq	8(%rsp), %rcx
	movq	32(%rcx), %rcx
	movq	%rcx, 48(%rax)
	movq	8(%rsp), %rcx
	movq	40(%rcx), %rcx
	movq	%rcx, 56(%rax)
	movq	16(%rax), %rax
	movq	%rax, 16(%rbx)
	movl	$64, %edi
	callq	_malloc
	movq	24(%rsp), %rcx
	movq	(%rcx), %rcx
	movq	%rcx, (%rax)
	movq	24(%rsp), %rcx
	movq	8(%rcx), %rcx
	movq	%rcx, 8(%rax)
	movq	8(%rsp), %rcx
	movq	(%rcx), %rcx
	movq	%rcx, 16(%rax)
	movq	8(%rsp), %rcx
	movq	8(%rcx), %rcx
	movq	%rcx, 24(%rax)
	movq	8(%rsp), %rdx
	movq	16(%rdx), %rdx
	movq	%rdx, 32(%rax)
	movq	8(%rsp), %rdx
	movq	24(%rdx), %rdx
	movq	%rdx, 40(%rax)
	movq	8(%rsp), %rdx
	movq	32(%rdx), %rdx
	movq	%rdx, 48(%rax)
	movq	8(%rsp), %rdx
	movq	40(%rdx), %rdx
	movq	%rdx, 56(%rax)
	movq	%rcx, 24(%rbx)
	movl	$64, %edi
	callq	_malloc
	movq	24(%rsp), %rcx
	movq	(%rcx), %rcx
	movq	%rcx, (%rax)
	movq	24(%rsp), %rcx
	movq	8(%rcx), %rcx
	movq	%rcx, 8(%rax)
	movq	8(%rsp), %rcx
	movq	(%rcx), %rcx
	movq	%rcx, 16(%rax)
	movq	8(%rsp), %rcx
	movq	8(%rcx), %rcx
	movq	%rcx, 24(%rax)
	movq	8(%rsp), %rcx
	movq	16(%rcx), %rcx
	movq	%rcx, 32(%rax)
	movq	8(%rsp), %rdx
	movq	24(%rdx), %rdx
	movq	%rdx, 40(%rax)
	movq	8(%rsp), %rdx
	movq	32(%rdx), %rdx
	movq	%rdx, 48(%rax)
	movq	8(%rsp), %rdx
	movq	40(%rdx), %rdx
	movq	%rdx, 56(%rax)
	movq	%rcx, 32(%rbx)
	movl	$64, %edi
	callq	_malloc
	movq	24(%rsp), %rcx
	movq	(%rcx), %rcx
	movq	%rcx, (%rax)
	movq	24(%rsp), %rcx
	movq	8(%rcx), %rcx
	movq	%rcx, 8(%rax)
	movq	8(%rsp), %rcx
	movq	(%rcx), %rcx
	movq	%rcx, 16(%rax)
	movq	8(%rsp), %rcx
	movq	8(%rcx), %rcx
	movq	%rcx, 24(%rax)
	movq	8(%rsp), %rcx
	movq	16(%rcx), %rcx
	movq	%rcx, 32(%rax)
	movq	8(%rsp), %rcx
	movq	24(%rcx), %rcx
	movq	%rcx, 40(%rax)
	movq	8(%rsp), %rdx
	movq	32(%rdx), %rdx
	movq	%rdx, 48(%rax)
	movq	8(%rsp), %rdx
	movq	40(%rdx), %rdx
	movq	%rdx, 56(%rax)
	movq	%rcx, 40(%rbx)
	movl	$64, %edi
	callq	_malloc
	movq	24(%rsp), %rcx
	movq	(%rcx), %rcx
	movq	%rcx, (%rax)
	movq	24(%rsp), %rcx
	movq	8(%rcx), %rcx
	movq	%rcx, 8(%rax)
	movq	8(%rsp), %rcx
	movq	(%rcx), %rcx
	movq	%rcx, 16(%rax)
	movq	8(%rsp), %rcx
	movq	8(%rcx), %rcx
	movq	%rcx, 24(%rax)
	movq	8(%rsp), %rcx
	movq	16(%rcx), %rcx
	movq	%rcx, 32(%rax)
	movq	8(%rsp), %rcx
	movq	24(%rcx), %rcx
	movq	%rcx, 40(%rax)
	movq	8(%rsp), %rcx
	movq	32(%rcx), %rcx
	movq	%rcx, 48(%rax)
	movq	8(%rsp), %rdx
	movq	40(%rdx), %rdx
	movq	%rdx, 56(%rax)
	movq	%rcx, 48(%rbx)
	movl	$64, %edi
	callq	_malloc
	movq	24(%rsp), %rcx
	movq	(%rcx), %rcx
	movq	%rcx, (%rax)
	movq	24(%rsp), %rcx
	movq	8(%rcx), %rcx
	movq	%rcx, 8(%rax)
	movq	8(%rsp), %rcx
	movq	(%rcx), %rcx
	movq	%rcx, 16(%rax)
	movq	8(%rsp), %rcx
	movq	8(%rcx), %rcx
	movq	%rcx, 24(%rax)
	movq	8(%rsp), %rcx
	movq	16(%rcx), %rcx
	movq	%rcx, 32(%rax)
	movq	8(%rsp), %rcx
	movq	24(%rcx), %rcx
	movq	%rcx, 40(%rax)
	movq	8(%rsp), %rcx
	movq	32(%rcx), %rcx
	movq	%rcx, 48(%rax)
	movq	8(%rsp), %rcx
	movq	40(%rcx), %rcx
	movq	%rcx, 56(%rax)
	movq	%rcx, 56(%rbx)
	movq	40(%rsp), %rax
	movq	(%rax), %rax
	movq	%rax, 64(%rbx)
	movq	40(%rsp), %rax
	movq	8(%rax), %rax
	movq	%rax, 72(%rbx)
	movq	40(%rsp), %rax
	movq	16(%rax), %rax
	movq	%rax, 80(%rbx)
	movq	40(%rsp), %rax
	movq	24(%rax), %rax
	movq	%rax, 88(%rbx)
	movq	40(%rsp), %rax
	movq	32(%rax), %rax
	movq	%rax, 96(%rbx)
	movq	16(%rbx), %rax
	movq	%rax, 16(%r15)
	movl	$104, %edi
	callq	_malloc
	movq	%rax, %rbx
	movl	$64, %edi
	callq	_malloc
	movq	24(%rsp), %rcx
	movq	(%rcx), %rcx
	movq	%rcx, (%rax)
	movq	24(%rsp), %rcx
	movq	8(%rcx), %rcx
	movq	%rcx, 8(%rax)
	movq	8(%rsp), %rcx
	movq	(%rcx), %rcx
	movq	%rcx, 16(%rax)
	movq	8(%rsp), %rcx
	movq	8(%rcx), %rcx
	movq	%rcx, 24(%rax)
	movq	8(%rsp), %rcx
	movq	16(%rcx), %rcx
	movq	%rcx, 32(%rax)
	movq	8(%rsp), %rcx
	movq	24(%rcx), %rcx
	movq	%rcx, 40(%rax)
	movq	8(%rsp), %rcx
	movq	32(%rcx), %rcx
	movq	%rcx, 48(%rax)
	movq	8(%rsp), %rcx
	movq	40(%rcx), %rcx
	movq	%rcx, 56(%rax)
	movq	(%rax), %rax
	movq	%rax, (%rbx)
	movl	$64, %edi
	callq	_malloc
	movq	24(%rsp), %rcx
	movq	(%rcx), %rcx
	movq	%rcx, (%rax)
	movq	24(%rsp), %rcx
	movq	8(%rcx), %rcx
	movq	%rcx, 8(%rax)
	movq	8(%rsp), %rcx
	movq	(%rcx), %rcx
	movq	%rcx, 16(%rax)
	movq	8(%rsp), %rcx
	movq	8(%rcx), %rcx
	movq	%rcx, 24(%rax)
	movq	8(%rsp), %rcx
	movq	16(%rcx), %rcx
	movq	%rcx, 32(%rax)
	movq	8(%rsp), %rcx
	movq	24(%rcx), %rcx
	movq	%rcx, 40(%rax)
	movq	8(%rsp), %rcx
	movq	32(%rcx), %rcx
	movq	%rcx, 48(%rax)
	movq	8(%rsp), %rcx
	movq	40(%rcx), %rcx
	movq	%rcx, 56(%rax)
	movq	8(%rax), %rax
	movq	%rax, 8(%rbx)
	movl	$64, %edi
	callq	_malloc
	movq	24(%rsp), %rcx
	movq	(%rcx), %rcx
	movq	%rcx, (%rax)
	movq	24(%rsp), %rcx
	movq	8(%rcx), %rcx
	movq	%rcx, 8(%rax)
	movq	8(%rsp), %rcx
	movq	(%rcx), %rcx
	movq	%rcx, 16(%rax)
	movq	8(%rsp), %rcx
	movq	8(%rcx), %rcx
	movq	%rcx, 24(%rax)
	movq	8(%rsp), %rcx
	movq	16(%rcx), %rcx
	movq	%rcx, 32(%rax)
	movq	8(%rsp), %rcx
	movq	24(%rcx), %rcx
	movq	%rcx, 40(%rax)
	movq	8(%rsp), %rcx
	movq	32(%rcx), %rcx
	movq	%rcx, 48(%rax)
	movq	8(%rsp), %rcx
	movq	40(%rcx), %rcx
	movq	%rcx, 56(%rax)
	movq	16(%rax), %rax
	movq	%rax, 16(%rbx)
	movl	$64, %edi
	callq	_malloc
	movq	24(%rsp), %rcx
	movq	(%rcx), %rcx
	movq	%rcx, (%rax)
	movq	24(%rsp), %rcx
	movq	8(%rcx), %rcx
	movq	%rcx, 8(%rax)
	movq	8(%rsp), %rcx
	movq	(%rcx), %rcx
	movq	%rcx, 16(%rax)
	movq	8(%rsp), %rcx
	movq	8(%rcx), %rcx
	movq	%rcx, 24(%rax)
	movq	8(%rsp), %rdx
	movq	16(%rdx), %rdx
	movq	%rdx, 32(%rax)
	movq	8(%rsp), %rdx
	movq	24(%rdx), %rdx
	movq	%rdx, 40(%rax)
	movq	8(%rsp), %rdx
	movq	32(%rdx), %rdx
	movq	%rdx, 48(%rax)
	movq	8(%rsp), %rdx
	movq	40(%rdx), %rdx
	movq	%rdx, 56(%rax)
	movq	%rcx, 24(%rbx)
	movl	$64, %edi
	callq	_malloc
	movq	24(%rsp), %rcx
	movq	(%rcx), %rcx
	movq	%rcx, (%rax)
	movq	24(%rsp), %rcx
	movq	8(%rcx), %rcx
	movq	%rcx, 8(%rax)
	movq	8(%rsp), %rcx
	movq	(%rcx), %rcx
	movq	%rcx, 16(%rax)
	movq	8(%rsp), %rcx
	movq	8(%rcx), %rcx
	movq	%rcx, 24(%rax)
	movq	8(%rsp), %rcx
	movq	16(%rcx), %rcx
	movq	%rcx, 32(%rax)
	movq	8(%rsp), %rdx
	movq	24(%rdx), %rdx
	movq	%rdx, 40(%rax)
	movq	8(%rsp), %rdx
	movq	32(%rdx), %rdx
	movq	%rdx, 48(%rax)
	movq	8(%rsp), %rdx
	movq	40(%rdx), %rdx
	movq	%rdx, 56(%rax)
	movq	%rcx, 32(%rbx)
	movl	$64, %edi
	callq	_malloc
	movq	24(%rsp), %rcx
	movq	(%rcx), %rcx
	movq	%rcx, (%rax)
	movq	24(%rsp), %rcx
	movq	8(%rcx), %rcx
	movq	%rcx, 8(%rax)
	movq	8(%rsp), %rcx
	movq	(%rcx), %rcx
	movq	%rcx, 16(%rax)
	movq	8(%rsp), %rcx
	movq	8(%rcx), %rcx
	movq	%rcx, 24(%rax)
	movq	8(%rsp), %rcx
	movq	16(%rcx), %rcx
	movq	%rcx, 32(%rax)
	movq	8(%rsp), %rcx
	movq	24(%rcx), %rcx
	movq	%rcx, 40(%rax)
	movq	8(%rsp), %rdx
	movq	32(%rdx), %rdx
	movq	%rdx, 48(%rax)
	movq	8(%rsp), %rdx
	movq	40(%rdx), %rdx
	movq	%rdx, 56(%rax)
	movq	%rcx, 40(%rbx)
	movl	$64, %edi
	callq	_malloc
	movq	24(%rsp), %rcx
	movq	(%rcx), %rcx
	movq	%rcx, (%rax)
	movq	24(%rsp), %rcx
	movq	8(%rcx), %rcx
	movq	%rcx, 8(%rax)
	movq	8(%rsp), %rcx
	movq	(%rcx), %rcx
	movq	%rcx, 16(%rax)
	movq	8(%rsp), %rcx
	movq	8(%rcx), %rcx
	movq	%rcx, 24(%rax)
	movq	8(%rsp), %rcx
	movq	16(%rcx), %rcx
	movq	%rcx, 32(%rax)
	movq	8(%rsp), %rcx
	movq	24(%rcx), %rcx
	movq	%rcx, 40(%rax)
	movq	8(%rsp), %rcx
	movq	32(%rcx), %rcx
	movq	%rcx, 48(%rax)
	movq	8(%rsp), %rdx
	movq	40(%rdx), %rdx
	movq	%rdx, 56(%rax)
	movq	%rcx, 48(%rbx)
	movl	$64, %edi
	callq	_malloc
	movq	24(%rsp), %rcx
	movq	(%rcx), %rcx
	movq	%rcx, (%rax)
	movq	24(%rsp), %rcx
	movq	8(%rcx), %rcx
	movq	%rcx, 8(%rax)
	movq	8(%rsp), %rcx
	movq	(%rcx), %rcx
	movq	%rcx, 16(%rax)
	movq	8(%rsp), %rcx
	movq	8(%rcx), %rcx
	movq	%rcx, 24(%rax)
	movq	8(%rsp), %rcx
	movq	16(%rcx), %rcx
	movq	%rcx, 32(%rax)
	movq	8(%rsp), %rcx
	movq	24(%rcx), %rcx
	movq	%rcx, 40(%rax)
	movq	8(%rsp), %rcx
	movq	32(%rcx), %rcx
	movq	%rcx, 48(%rax)
	movq	8(%rsp), %rcx
	movq	40(%rcx), %rcx
	movq	%rcx, 56(%rax)
	movq	%rcx, 56(%rbx)
	movq	40(%rsp), %rax
	movq	(%rax), %rax
	movq	%rax, 64(%rbx)
	movq	40(%rsp), %rax
	movq	8(%rax), %rax
	movq	%rax, 72(%rbx)
	movq	40(%rsp), %rax
	movq	16(%rax), %rax
	movq	%rax, 80(%rbx)
	movq	40(%rsp), %rax
	movq	24(%rax), %rax
	movq	%rax, 88(%rbx)
	movq	40(%rsp), %rax
	movq	32(%rax), %rax
	movq	%rax, 96(%rbx)
	movq	24(%rbx), %rax
	movq	%rax, 24(%r15)
	movl	$104, %edi
	callq	_malloc
	movq	%rax, %rbx
	movl	$64, %edi
	callq	_malloc
	movq	24(%rsp), %rcx
	movq	(%rcx), %rcx
	movq	%rcx, (%rax)
	movq	24(%rsp), %rcx
	movq	8(%rcx), %rcx
	movq	%rcx, 8(%rax)
	movq	8(%rsp), %rcx
	movq	(%rcx), %rcx
	movq	%rcx, 16(%rax)
	movq	8(%rsp), %rcx
	movq	8(%rcx), %rcx
	movq	%rcx, 24(%rax)
	movq	8(%rsp), %rcx
	movq	16(%rcx), %rcx
	movq	%rcx, 32(%rax)
	movq	8(%rsp), %rcx
	movq	24(%rcx), %rcx
	movq	%rcx, 40(%rax)
	movq	8(%rsp), %rcx
	movq	32(%rcx), %rcx
	movq	%rcx, 48(%rax)
	movq	8(%rsp), %rcx
	movq	40(%rcx), %rcx
	movq	%rcx, 56(%rax)
	movq	(%rax), %rax
	movq	%rax, (%rbx)
	movl	$64, %edi
	callq	_malloc
	movq	24(%rsp), %rcx
	movq	(%rcx), %rcx
	movq	%rcx, (%rax)
	movq	24(%rsp), %rcx
	movq	8(%rcx), %rcx
	movq	%rcx, 8(%rax)
	movq	8(%rsp), %rcx
	movq	(%rcx), %rcx
	movq	%rcx, 16(%rax)
	movq	8(%rsp), %rcx
	movq	8(%rcx), %rcx
	movq	%rcx, 24(%rax)
	movq	8(%rsp), %rcx
	movq	16(%rcx), %rcx
	movq	%rcx, 32(%rax)
	movq	8(%rsp), %rcx
	movq	24(%rcx), %rcx
	movq	%rcx, 40(%rax)
	movq	8(%rsp), %rcx
	movq	32(%rcx), %rcx
	movq	%rcx, 48(%rax)
	movq	8(%rsp), %rcx
	movq	40(%rcx), %rcx
	movq	%rcx, 56(%rax)
	movq	8(%rax), %rax
	movq	%rax, 8(%rbx)
	movl	$64, %edi
	callq	_malloc
	movq	24(%rsp), %rcx
	movq	(%rcx), %rcx
	movq	%rcx, (%rax)
	movq	24(%rsp), %rcx
	movq	8(%rcx), %rcx
	movq	%rcx, 8(%rax)
	movq	8(%rsp), %rcx
	movq	(%rcx), %rcx
	movq	%rcx, 16(%rax)
	movq	8(%rsp), %rcx
	movq	8(%rcx), %rcx
	movq	%rcx, 24(%rax)
	movq	8(%rsp), %rcx
	movq	16(%rcx), %rcx
	movq	%rcx, 32(%rax)
	movq	8(%rsp), %rcx
	movq	24(%rcx), %rcx
	movq	%rcx, 40(%rax)
	movq	8(%rsp), %rcx
	movq	32(%rcx), %rcx
	movq	%rcx, 48(%rax)
	movq	8(%rsp), %rcx
	movq	40(%rcx), %rcx
	movq	%rcx, 56(%rax)
	movq	16(%rax), %rax
	movq	%rax, 16(%rbx)
	movl	$64, %edi
	callq	_malloc
	movq	24(%rsp), %rcx
	movq	(%rcx), %rcx
	movq	%rcx, (%rax)
	movq	24(%rsp), %rcx
	movq	8(%rcx), %rcx
	movq	%rcx, 8(%rax)
	movq	8(%rsp), %rcx
	movq	(%rcx), %rcx
	movq	%rcx, 16(%rax)
	movq	8(%rsp), %rcx
	movq	8(%rcx), %rcx
	movq	%rcx, 24(%rax)
	movq	8(%rsp), %rdx
	movq	16(%rdx), %rdx
	movq	%rdx, 32(%rax)
	movq	8(%rsp), %rdx
	movq	24(%rdx), %rdx
	movq	%rdx, 40(%rax)
	movq	8(%rsp), %rdx
	movq	32(%rdx), %rdx
	movq	%rdx, 48(%rax)
	movq	8(%rsp), %rdx
	movq	40(%rdx), %rdx
	movq	%rdx, 56(%rax)
	movq	%rcx, 24(%rbx)
	movl	$64, %edi
	callq	_malloc
	movq	24(%rsp), %rcx
	movq	(%rcx), %rcx
	movq	%rcx, (%rax)
	movq	24(%rsp), %rcx
	movq	8(%rcx), %rcx
	movq	%rcx, 8(%rax)
	movq	8(%rsp), %rcx
	movq	(%rcx), %rcx
	movq	%rcx, 16(%rax)
	movq	8(%rsp), %rcx
	movq	8(%rcx), %rcx
	movq	%rcx, 24(%rax)
	movq	8(%rsp), %rcx
	movq	16(%rcx), %rcx
	movq	%rcx, 32(%rax)
	movq	8(%rsp), %rdx
	movq	24(%rdx), %rdx
	movq	%rdx, 40(%rax)
	movq	8(%rsp), %rdx
	movq	32(%rdx), %rdx
	movq	%rdx, 48(%rax)
	movq	8(%rsp), %rdx
	movq	40(%rdx), %rdx
	movq	%rdx, 56(%rax)
	movq	%rcx, 32(%rbx)
	movl	$64, %edi
	callq	_malloc
	movq	24(%rsp), %rcx
	movq	(%rcx), %rcx
	movq	%rcx, (%rax)
	movq	24(%rsp), %rcx
	movq	8(%rcx), %rcx
	movq	%rcx, 8(%rax)
	movq	8(%rsp), %rcx
	movq	(%rcx), %rcx
	movq	%rcx, 16(%rax)
	movq	8(%rsp), %rcx
	movq	8(%rcx), %rcx
	movq	%rcx, 24(%rax)
	movq	8(%rsp), %rcx
	movq	16(%rcx), %rcx
	movq	%rcx, 32(%rax)
	movq	8(%rsp), %rcx
	movq	24(%rcx), %rcx
	movq	%rcx, 40(%rax)
	movq	8(%rsp), %rdx
	movq	32(%rdx), %rdx
	movq	%rdx, 48(%rax)
	movq	8(%rsp), %rdx
	movq	40(%rdx), %rdx
	movq	%rdx, 56(%rax)
	movq	%rcx, 40(%rbx)
	movl	$64, %edi
	callq	_malloc
	movq	24(%rsp), %rcx
	movq	(%rcx), %rcx
	movq	%rcx, (%rax)
	movq	24(%rsp), %rcx
	movq	8(%rcx), %rcx
	movq	%rcx, 8(%rax)
	movq	8(%rsp), %rcx
	movq	(%rcx), %rcx
	movq	%rcx, 16(%rax)
	movq	8(%rsp), %rcx
	movq	8(%rcx), %rcx
	movq	%rcx, 24(%rax)
	movq	8(%rsp), %rcx
	movq	16(%rcx), %rcx
	movq	%rcx, 32(%rax)
	movq	8(%rsp), %rcx
	movq	24(%rcx), %rcx
	movq	%rcx, 40(%rax)
	movq	8(%rsp), %rcx
	movq	32(%rcx), %rcx
	movq	%rcx, 48(%rax)
	movq	8(%rsp), %rdx
	movq	40(%rdx), %rdx
	movq	%rdx, 56(%rax)
	movq	%rcx, 48(%rbx)
	movl	$64, %edi
	callq	_malloc
	movq	24(%rsp), %rcx
	movq	(%rcx), %rcx
	movq	%rcx, (%rax)
	movq	24(%rsp), %rcx
	movq	8(%rcx), %rcx
	movq	%rcx, 8(%rax)
	movq	8(%rsp), %rcx
	movq	(%rcx), %rcx
	movq	%rcx, 16(%rax)
	movq	8(%rsp), %rcx
	movq	8(%rcx), %rcx
	movq	%rcx, 24(%rax)
	movq	8(%rsp), %rcx
	movq	16(%rcx), %rcx
	movq	%rcx, 32(%rax)
	movq	8(%rsp), %rcx
	movq	24(%rcx), %rcx
	movq	%rcx, 40(%rax)
	movq	8(%rsp), %rcx
	movq	32(%rcx), %rcx
	movq	%rcx, 48(%rax)
	movq	8(%rsp), %rcx
	movq	40(%rcx), %rcx
	movq	%rcx, 56(%rax)
	movq	%rcx, 56(%rbx)
	movq	40(%rsp), %rax
	movq	(%rax), %rax
	movq	%rax, 64(%rbx)
	movq	40(%rsp), %rax
	movq	8(%rax), %rax
	movq	%rax, 72(%rbx)
	movq	40(%rsp), %rax
	movq	16(%rax), %rax
	movq	%rax, 80(%rbx)
	movq	40(%rsp), %rax
	movq	24(%rax), %rax
	movq	%rax, 88(%rbx)
	movq	40(%rsp), %rax
	movq	32(%rax), %rax
	movq	%rax, 96(%rbx)
	movq	32(%rbx), %rax
	movq	%rax, 32(%r15)
	movl	$104, %edi
	callq	_malloc
	movq	%rax, %rbx
	movl	$64, %edi
	callq	_malloc
	movq	24(%rsp), %rcx
	movq	(%rcx), %rcx
	movq	%rcx, (%rax)
	movq	24(%rsp), %rcx
	movq	8(%rcx), %rcx
	movq	%rcx, 8(%rax)
	movq	8(%rsp), %rcx
	movq	(%rcx), %rcx
	movq	%rcx, 16(%rax)
	movq	8(%rsp), %rcx
	movq	8(%rcx), %rcx
	movq	%rcx, 24(%rax)
	movq	8(%rsp), %rcx
	movq	16(%rcx), %rcx
	movq	%rcx, 32(%rax)
	movq	8(%rsp), %rcx
	movq	24(%rcx), %rcx
	movq	%rcx, 40(%rax)
	movq	8(%rsp), %rcx
	movq	32(%rcx), %rcx
	movq	%rcx, 48(%rax)
	movq	8(%rsp), %rcx
	movq	40(%rcx), %rcx
	movq	%rcx, 56(%rax)
	movq	(%rax), %rax
	movq	%rax, (%rbx)
	movl	$64, %edi
	callq	_malloc
	movq	24(%rsp), %rcx
	movq	(%rcx), %rcx
	movq	%rcx, (%rax)
	movq	24(%rsp), %rcx
	movq	8(%rcx), %rcx
	movq	%rcx, 8(%rax)
	movq	8(%rsp), %rcx
	movq	(%rcx), %rcx
	movq	%rcx, 16(%rax)
	movq	8(%rsp), %rcx
	movq	8(%rcx), %rcx
	movq	%rcx, 24(%rax)
	movq	8(%rsp), %rcx
	movq	16(%rcx), %rcx
	movq	%rcx, 32(%rax)
	movq	8(%rsp), %rcx
	movq	24(%rcx), %rcx
	movq	%rcx, 40(%rax)
	movq	8(%rsp), %rcx
	movq	32(%rcx), %rcx
	movq	%rcx, 48(%rax)
	movq	8(%rsp), %rcx
	movq	40(%rcx), %rcx
	movq	%rcx, 56(%rax)
	movq	8(%rax), %rax
	movq	%rax, 8(%rbx)
	movl	$64, %edi
	callq	_malloc
	movq	24(%rsp), %rcx
	movq	(%rcx), %rcx
	movq	%rcx, (%rax)
	movq	24(%rsp), %rcx
	movq	8(%rcx), %rcx
	movq	%rcx, 8(%rax)
	movq	8(%rsp), %rcx
	movq	(%rcx), %rcx
	movq	%rcx, 16(%rax)
	movq	8(%rsp), %rcx
	movq	8(%rcx), %rcx
	movq	%rcx, 24(%rax)
	movq	8(%rsp), %rcx
	movq	16(%rcx), %rcx
	movq	%rcx, 32(%rax)
	movq	8(%rsp), %rcx
	movq	24(%rcx), %rcx
	movq	%rcx, 40(%rax)
	movq	8(%rsp), %rcx
	movq	32(%rcx), %rcx
	movq	%rcx, 48(%rax)
	movq	8(%rsp), %rcx
	movq	40(%rcx), %rcx
	movq	%rcx, 56(%rax)
	movq	16(%rax), %rax
	movq	%rax, 16(%rbx)
	movl	$64, %edi
	callq	_malloc
	movq	24(%rsp), %rcx
	movq	(%rcx), %rcx
	movq	%rcx, (%rax)
	movq	24(%rsp), %rcx
	movq	8(%rcx), %rcx
	movq	%rcx, 8(%rax)
	movq	8(%rsp), %rcx
	movq	(%rcx), %rcx
	movq	%rcx, 16(%rax)
	movq	8(%rsp), %rcx
	movq	8(%rcx), %rcx
	movq	%rcx, 24(%rax)
	movq	8(%rsp), %rdx
	movq	16(%rdx), %rdx
	movq	%rdx, 32(%rax)
	movq	8(%rsp), %rdx
	movq	24(%rdx), %rdx
	movq	%rdx, 40(%rax)
	movq	8(%rsp), %rdx
	movq	32(%rdx), %rdx
	movq	%rdx, 48(%rax)
	movq	8(%rsp), %rdx
	movq	40(%rdx), %rdx
	movq	%rdx, 56(%rax)
	movq	%rcx, 24(%rbx)
	movl	$64, %edi
	callq	_malloc
	movq	24(%rsp), %rcx
	movq	(%rcx), %rcx
	movq	%rcx, (%rax)
	movq	24(%rsp), %rcx
	movq	8(%rcx), %rcx
	movq	%rcx, 8(%rax)
	movq	8(%rsp), %rcx
	movq	(%rcx), %rcx
	movq	%rcx, 16(%rax)
	movq	8(%rsp), %rcx
	movq	8(%rcx), %rcx
	movq	%rcx, 24(%rax)
	movq	8(%rsp), %rcx
	movq	16(%rcx), %rcx
	movq	%rcx, 32(%rax)
	movq	8(%rsp), %rdx
	movq	24(%rdx), %rdx
	movq	%rdx, 40(%rax)
	movq	8(%rsp), %rdx
	movq	32(%rdx), %rdx
	movq	%rdx, 48(%rax)
	movq	8(%rsp), %rdx
	movq	40(%rdx), %rdx
	movq	%rdx, 56(%rax)
	movq	%rcx, 32(%rbx)
	movl	$64, %edi
	callq	_malloc
	movq	24(%rsp), %rcx
	movq	(%rcx), %rcx
	movq	%rcx, (%rax)
	movq	24(%rsp), %rcx
	movq	8(%rcx), %rcx
	movq	%rcx, 8(%rax)
	movq	8(%rsp), %rcx
	movq	(%rcx), %rcx
	movq	%rcx, 16(%rax)
	movq	8(%rsp), %rcx
	movq	8(%rcx), %rcx
	movq	%rcx, 24(%rax)
	movq	8(%rsp), %rcx
	movq	16(%rcx), %rcx
	movq	%rcx, 32(%rax)
	movq	8(%rsp), %rcx
	movq	24(%rcx), %rcx
	movq	%rcx, 40(%rax)
	movq	8(%rsp), %rdx
	movq	32(%rdx), %rdx
	movq	%rdx, 48(%rax)
	movq	8(%rsp), %rdx
	movq	40(%rdx), %rdx
	movq	%rdx, 56(%rax)
	movq	%rcx, 40(%rbx)
	movl	$64, %edi
	callq	_malloc
	movq	24(%rsp), %rcx
	movq	(%rcx), %rcx
	movq	%rcx, (%rax)
	movq	24(%rsp), %rcx
	movq	8(%rcx), %rcx
	movq	%rcx, 8(%rax)
	movq	8(%rsp), %rcx
	movq	(%rcx), %rcx
	movq	%rcx, 16(%rax)
	movq	8(%rsp), %rcx
	movq	8(%rcx), %rcx
	movq	%rcx, 24(%rax)
	movq	8(%rsp), %rcx
	movq	16(%rcx), %rcx
	movq	%rcx, 32(%rax)
	movq	8(%rsp), %rcx
	movq	24(%rcx), %rcx
	movq	%rcx, 40(%rax)
	movq	8(%rsp), %rcx
	movq	32(%rcx), %rcx
	movq	%rcx, 48(%rax)
	movq	8(%rsp), %rdx
	movq	40(%rdx), %rdx
	movq	%rdx, 56(%rax)
	movq	%rcx, 48(%rbx)
	movl	$64, %edi
	callq	_malloc
	movq	24(%rsp), %rcx
	movq	(%rcx), %rcx
	movq	%rcx, (%rax)
	movq	24(%rsp), %rcx
	movq	8(%rcx), %rcx
	movq	%rcx, 8(%rax)
	movq	8(%rsp), %rcx
	movq	(%rcx), %rcx
	movq	%rcx, 16(%rax)
	movq	8(%rsp), %rcx
	movq	8(%rcx), %rcx
	movq	%rcx, 24(%rax)
	movq	8(%rsp), %rcx
	movq	16(%rcx), %rcx
	movq	%rcx, 32(%rax)
	movq	8(%rsp), %rcx
	movq	24(%rcx), %rcx
	movq	%rcx, 40(%rax)
	movq	8(%rsp), %rcx
	movq	32(%rcx), %rcx
	movq	%rcx, 48(%rax)
	movq	8(%rsp), %rcx
	movq	40(%rcx), %rcx
	movq	%rcx, 56(%rax)
	movq	%rcx, 56(%rbx)
	movq	40(%rsp), %rax
	movq	(%rax), %rax
	movq	%rax, 64(%rbx)
	movq	40(%rsp), %rax
	movq	8(%rax), %rax
	movq	%rax, 72(%rbx)
	movq	40(%rsp), %rax
	movq	16(%rax), %rax
	movq	%rax, 80(%rbx)
	movq	40(%rsp), %rax
	movq	24(%rax), %rax
	movq	%rax, 88(%rbx)
	movq	40(%rsp), %rax
	movq	32(%rax), %rax
	movq	%rax, 96(%rbx)
	movq	40(%rbx), %rax
	movq	%rax, 40(%r15)
	movl	$104, %edi
	callq	_malloc
	movq	%rax, %rbx
	movl	$64, %edi
	callq	_malloc
	movq	24(%rsp), %rcx
	movq	(%rcx), %rcx
	movq	%rcx, (%rax)
	movq	24(%rsp), %rcx
	movq	8(%rcx), %rcx
	movq	%rcx, 8(%rax)
	movq	8(%rsp), %rcx
	movq	(%rcx), %rcx
	movq	%rcx, 16(%rax)
	movq	8(%rsp), %rcx
	movq	8(%rcx), %rcx
	movq	%rcx, 24(%rax)
	movq	8(%rsp), %rcx
	movq	16(%rcx), %rcx
	movq	%rcx, 32(%rax)
	movq	8(%rsp), %rcx
	movq	24(%rcx), %rcx
	movq	%rcx, 40(%rax)
	movq	8(%rsp), %rcx
	movq	32(%rcx), %rcx
	movq	%rcx, 48(%rax)
	movq	8(%rsp), %rcx
	movq	40(%rcx), %rcx
	movq	%rcx, 56(%rax)
	movq	(%rax), %rax
	movq	%rax, (%rbx)
	movl	$64, %edi
	callq	_malloc
	movq	24(%rsp), %rcx
	movq	(%rcx), %rcx
	movq	%rcx, (%rax)
	movq	24(%rsp), %rcx
	movq	8(%rcx), %rcx
	movq	%rcx, 8(%rax)
	movq	8(%rsp), %rcx
	movq	(%rcx), %rcx
	movq	%rcx, 16(%rax)
	movq	8(%rsp), %rcx
	movq	8(%rcx), %rcx
	movq	%rcx, 24(%rax)
	movq	8(%rsp), %rcx
	movq	16(%rcx), %rcx
	movq	%rcx, 32(%rax)
	movq	8(%rsp), %rcx
	movq	24(%rcx), %rcx
	movq	%rcx, 40(%rax)
	movq	8(%rsp), %rcx
	movq	32(%rcx), %rcx
	movq	%rcx, 48(%rax)
	movq	8(%rsp), %rcx
	movq	40(%rcx), %rcx
	movq	%rcx, 56(%rax)
	movq	8(%rax), %rax
	movq	%rax, 8(%rbx)
	movl	$64, %edi
	callq	_malloc
	movq	24(%rsp), %rcx
	movq	(%rcx), %rcx
	movq	%rcx, (%rax)
	movq	24(%rsp), %rcx
	movq	8(%rcx), %rcx
	movq	%rcx, 8(%rax)
	movq	8(%rsp), %rcx
	movq	(%rcx), %rcx
	movq	%rcx, 16(%rax)
	movq	8(%rsp), %rcx
	movq	8(%rcx), %rcx
	movq	%rcx, 24(%rax)
	movq	8(%rsp), %rcx
	movq	16(%rcx), %rcx
	movq	%rcx, 32(%rax)
	movq	8(%rsp), %rcx
	movq	24(%rcx), %rcx
	movq	%rcx, 40(%rax)
	movq	8(%rsp), %rcx
	movq	32(%rcx), %rcx
	movq	%rcx, 48(%rax)
	movq	8(%rsp), %rcx
	movq	40(%rcx), %rcx
	movq	%rcx, 56(%rax)
	movq	16(%rax), %rax
	movq	%rax, 16(%rbx)
	movl	$64, %edi
	callq	_malloc
	movq	24(%rsp), %rcx
	movq	(%rcx), %rcx
	movq	%rcx, (%rax)
	movq	24(%rsp), %rcx
	movq	8(%rcx), %rcx
	movq	%rcx, 8(%rax)
	movq	8(%rsp), %rcx
	movq	(%rcx), %rcx
	movq	%rcx, 16(%rax)
	movq	8(%rsp), %rcx
	movq	8(%rcx), %rcx
	movq	%rcx, 24(%rax)
	movq	8(%rsp), %rdx
	movq	16(%rdx), %rdx
	movq	%rdx, 32(%rax)
	movq	8(%rsp), %rdx
	movq	24(%rdx), %rdx
	movq	%rdx, 40(%rax)
	movq	8(%rsp), %rdx
	movq	32(%rdx), %rdx
	movq	%rdx, 48(%rax)
	movq	8(%rsp), %rdx
	movq	40(%rdx), %rdx
	movq	%rdx, 56(%rax)
	movq	%rcx, 24(%rbx)
	movl	$64, %edi
	callq	_malloc
	movq	24(%rsp), %rcx
	movq	(%rcx), %rcx
	movq	%rcx, (%rax)
	movq	24(%rsp), %rcx
	movq	8(%rcx), %rcx
	movq	%rcx, 8(%rax)
	movq	8(%rsp), %rcx
	movq	(%rcx), %rcx
	movq	%rcx, 16(%rax)
	movq	8(%rsp), %rcx
	movq	8(%rcx), %rcx
	movq	%rcx, 24(%rax)
	movq	8(%rsp), %rcx
	movq	16(%rcx), %rcx
	movq	%rcx, 32(%rax)
	movq	8(%rsp), %rdx
	movq	24(%rdx), %rdx
	movq	%rdx, 40(%rax)
	movq	8(%rsp), %rdx
	movq	32(%rdx), %rdx
	movq	%rdx, 48(%rax)
	movq	8(%rsp), %rdx
	movq	40(%rdx), %rdx
	movq	%rdx, 56(%rax)
	movq	%rcx, 32(%rbx)
	movl	$64, %edi
	callq	_malloc
	movq	24(%rsp), %rcx
	movq	(%rcx), %rcx
	movq	%rcx, (%rax)
	movq	24(%rsp), %rcx
	movq	8(%rcx), %rcx
	movq	%rcx, 8(%rax)
	movq	8(%rsp), %rcx
	movq	(%rcx), %rcx
	movq	%rcx, 16(%rax)
	movq	8(%rsp), %rcx
	movq	8(%rcx), %rcx
	movq	%rcx, 24(%rax)
	movq	8(%rsp), %rcx
	movq	16(%rcx), %rcx
	movq	%rcx, 32(%rax)
	movq	8(%rsp), %rcx
	movq	24(%rcx), %rcx
	movq	%rcx, 40(%rax)
	movq	8(%rsp), %rdx
	movq	32(%rdx), %rdx
	movq	%rdx, 48(%rax)
	movq	8(%rsp), %rdx
	movq	40(%rdx), %rdx
	movq	%rdx, 56(%rax)
	movq	%rcx, 40(%rbx)
	movl	$64, %edi
	callq	_malloc
	movq	24(%rsp), %rcx
	movq	(%rcx), %rcx
	movq	%rcx, (%rax)
	movq	24(%rsp), %rcx
	movq	8(%rcx), %rcx
	movq	%rcx, 8(%rax)
	movq	8(%rsp), %rcx
	movq	(%rcx), %rcx
	movq	%rcx, 16(%rax)
	movq	8(%rsp), %rcx
	movq	8(%rcx), %rcx
	movq	%rcx, 24(%rax)
	movq	8(%rsp), %rcx
	movq	16(%rcx), %rcx
	movq	%rcx, 32(%rax)
	movq	8(%rsp), %rcx
	movq	24(%rcx), %rcx
	movq	%rcx, 40(%rax)
	movq	8(%rsp), %rcx
	movq	32(%rcx), %rcx
	movq	%rcx, 48(%rax)
	movq	8(%rsp), %rdx
	movq	40(%rdx), %rdx
	movq	%rdx, 56(%rax)
	movq	%rcx, 48(%rbx)
	movl	$64, %edi
	callq	_malloc
	movq	24(%rsp), %rcx
	movq	(%rcx), %rcx
	movq	%rcx, (%rax)
	movq	24(%rsp), %rcx
	movq	8(%rcx), %rcx
	movq	%rcx, 8(%rax)
	movq	8(%rsp), %rcx
	movq	(%rcx), %rcx
	movq	%rcx, 16(%rax)
	movq	8(%rsp), %rcx
	movq	8(%rcx), %rcx
	movq	%rcx, 24(%rax)
	movq	8(%rsp), %rcx
	movq	16(%rcx), %rcx
	movq	%rcx, 32(%rax)
	movq	8(%rsp), %rcx
	movq	24(%rcx), %rcx
	movq	%rcx, 40(%rax)
	movq	8(%rsp), %rcx
	movq	32(%rcx), %rcx
	movq	%rcx, 48(%rax)
	movq	8(%rsp), %rcx
	movq	40(%rcx), %rcx
	movq	%rcx, 56(%rax)
	movq	%rcx, 56(%rbx)
	movq	40(%rsp), %rax
	movq	(%rax), %rax
	movq	%rax, 64(%rbx)
	movq	40(%rsp), %rax
	movq	8(%rax), %rax
	movq	%rax, 72(%rbx)
	movq	40(%rsp), %rax
	movq	16(%rax), %rax
	movq	%rax, 80(%rbx)
	movq	40(%rsp), %rax
	movq	24(%rax), %rax
	movq	%rax, 88(%rbx)
	movq	40(%rsp), %rax
	movq	32(%rax), %rax
	movq	%rax, 96(%rbx)
	movq	48(%rbx), %rax
	movq	%rax, 48(%r15)
	movl	$104, %edi
	callq	_malloc
	movq	%rax, %rbx
	movl	$64, %edi
	callq	_malloc
	movq	24(%rsp), %rcx
	movq	(%rcx), %rcx
	movq	%rcx, (%rax)
	movq	24(%rsp), %rcx
	movq	8(%rcx), %rcx
	movq	%rcx, 8(%rax)
	movq	8(%rsp), %rcx
	movq	(%rcx), %rcx
	movq	%rcx, 16(%rax)
	movq	8(%rsp), %rcx
	movq	8(%rcx), %rcx
	movq	%rcx, 24(%rax)
	movq	8(%rsp), %rcx
	movq	16(%rcx), %rcx
	movq	%rcx, 32(%rax)
	movq	8(%rsp), %rcx
	movq	24(%rcx), %rcx
	movq	%rcx, 40(%rax)
	movq	8(%rsp), %rcx
	movq	32(%rcx), %rcx
	movq	%rcx, 48(%rax)
	movq	8(%rsp), %rcx
	movq	40(%rcx), %rcx
	movq	%rcx, 56(%rax)
	movq	(%rax), %rax
	movq	%rax, (%rbx)
	movl	$64, %edi
	callq	_malloc
	movq	24(%rsp), %rcx
	movq	(%rcx), %rcx
	movq	%rcx, (%rax)
	movq	24(%rsp), %rcx
	movq	8(%rcx), %rcx
	movq	%rcx, 8(%rax)
	movq	8(%rsp), %rcx
	movq	(%rcx), %rcx
	movq	%rcx, 16(%rax)
	movq	8(%rsp), %rcx
	movq	8(%rcx), %rcx
	movq	%rcx, 24(%rax)
	movq	8(%rsp), %rcx
	movq	16(%rcx), %rcx
	movq	%rcx, 32(%rax)
	movq	8(%rsp), %rcx
	movq	24(%rcx), %rcx
	movq	%rcx, 40(%rax)
	movq	8(%rsp), %rcx
	movq	32(%rcx), %rcx
	movq	%rcx, 48(%rax)
	movq	8(%rsp), %rcx
	movq	40(%rcx), %rcx
	movq	%rcx, 56(%rax)
	movq	8(%rax), %rax
	movq	%rax, 8(%rbx)
	movl	$64, %edi
	callq	_malloc
	movq	24(%rsp), %rcx
	movq	(%rcx), %rcx
	movq	%rcx, (%rax)
	movq	24(%rsp), %rcx
	movq	8(%rcx), %rcx
	movq	%rcx, 8(%rax)
	movq	8(%rsp), %rcx
	movq	(%rcx), %rcx
	movq	%rcx, 16(%rax)
	movq	8(%rsp), %rcx
	movq	8(%rcx), %rcx
	movq	%rcx, 24(%rax)
	movq	8(%rsp), %rcx
	movq	16(%rcx), %rcx
	movq	%rcx, 32(%rax)
	movq	8(%rsp), %rcx
	movq	24(%rcx), %rcx
	movq	%rcx, 40(%rax)
	movq	8(%rsp), %rcx
	movq	32(%rcx), %rcx
	movq	%rcx, 48(%rax)
	movq	8(%rsp), %rcx
	movq	40(%rcx), %rcx
	movq	%rcx, 56(%rax)
	movq	16(%rax), %rax
	movq	%rax, 16(%rbx)
	movl	$64, %edi
	callq	_malloc
	movq	24(%rsp), %rcx
	movq	(%rcx), %rcx
	movq	%rcx, (%rax)
	movq	24(%rsp), %rcx
	movq	8(%rcx), %rcx
	movq	%rcx, 8(%rax)
	movq	8(%rsp), %rcx
	movq	(%rcx), %rcx
	movq	%rcx, 16(%rax)
	movq	8(%rsp), %rcx
	movq	8(%rcx), %rcx
	movq	%rcx, 24(%rax)
	movq	8(%rsp), %rdx
	movq	16(%rdx), %rdx
	movq	%rdx, 32(%rax)
	movq	8(%rsp), %rdx
	movq	24(%rdx), %rdx
	movq	%rdx, 40(%rax)
	movq	8(%rsp), %rdx
	movq	32(%rdx), %rdx
	movq	%rdx, 48(%rax)
	movq	8(%rsp), %rdx
	movq	40(%rdx), %rdx
	movq	%rdx, 56(%rax)
	movq	%rcx, 24(%rbx)
	movl	$64, %edi
	callq	_malloc
	movq	24(%rsp), %rcx
	movq	(%rcx), %rcx
	movq	%rcx, (%rax)
	movq	24(%rsp), %rcx
	movq	8(%rcx), %rcx
	movq	%rcx, 8(%rax)
	movq	8(%rsp), %rcx
	movq	(%rcx), %rcx
	movq	%rcx, 16(%rax)
	movq	8(%rsp), %rcx
	movq	8(%rcx), %rcx
	movq	%rcx, 24(%rax)
	movq	8(%rsp), %rcx
	movq	16(%rcx), %rcx
	movq	%rcx, 32(%rax)
	movq	8(%rsp), %rdx
	movq	24(%rdx), %rdx
	movq	%rdx, 40(%rax)
	movq	8(%rsp), %rdx
	movq	32(%rdx), %rdx
	movq	%rdx, 48(%rax)
	movq	8(%rsp), %rdx
	movq	40(%rdx), %rdx
	movq	%rdx, 56(%rax)
	movq	%rcx, 32(%rbx)
	movl	$64, %edi
	callq	_malloc
	movq	24(%rsp), %rcx
	movq	(%rcx), %rcx
	movq	%rcx, (%rax)
	movq	24(%rsp), %rcx
	movq	8(%rcx), %rcx
	movq	%rcx, 8(%rax)
	movq	8(%rsp), %rcx
	movq	(%rcx), %rcx
	movq	%rcx, 16(%rax)
	movq	8(%rsp), %rcx
	movq	8(%rcx), %rcx
	movq	%rcx, 24(%rax)
	movq	8(%rsp), %rcx
	movq	16(%rcx), %rcx
	movq	%rcx, 32(%rax)
	movq	8(%rsp), %rcx
	movq	24(%rcx), %rcx
	movq	%rcx, 40(%rax)
	movq	8(%rsp), %rdx
	movq	32(%rdx), %rdx
	movq	%rdx, 48(%rax)
	movq	8(%rsp), %rdx
	movq	40(%rdx), %rdx
	movq	%rdx, 56(%rax)
	movq	%rcx, 40(%rbx)
	movl	$64, %edi
	callq	_malloc
	movq	24(%rsp), %rcx
	movq	(%rcx), %rcx
	movq	%rcx, (%rax)
	movq	24(%rsp), %rcx
	movq	8(%rcx), %rcx
	movq	%rcx, 8(%rax)
	movq	8(%rsp), %rcx
	movq	(%rcx), %rcx
	movq	%rcx, 16(%rax)
	movq	8(%rsp), %rcx
	movq	8(%rcx), %rcx
	movq	%rcx, 24(%rax)
	movq	8(%rsp), %rcx
	movq	16(%rcx), %rcx
	movq	%rcx, 32(%rax)
	movq	8(%rsp), %rcx
	movq	24(%rcx), %rcx
	movq	%rcx, 40(%rax)
	movq	8(%rsp), %rcx
	movq	32(%rcx), %rcx
	movq	%rcx, 48(%rax)
	movq	8(%rsp), %rdx
	movq	40(%rdx), %rdx
	movq	%rdx, 56(%rax)
	movq	%rcx, 48(%rbx)
	movl	$64, %edi
	callq	_malloc
	movq	24(%rsp), %rcx
	movq	(%rcx), %rcx
	movq	%rcx, (%rax)
	movq	24(%rsp), %rcx
	movq	8(%rcx), %rcx
	movq	%rcx, 8(%rax)
	movq	8(%rsp), %rcx
	movq	(%rcx), %rcx
	movq	%rcx, 16(%rax)
	movq	8(%rsp), %rcx
	movq	8(%rcx), %rcx
	movq	%rcx, 24(%rax)
	movq	8(%rsp), %rcx
	movq	16(%rcx), %rcx
	movq	%rcx, 32(%rax)
	movq	8(%rsp), %rcx
	movq	24(%rcx), %rcx
	movq	%rcx, 40(%rax)
	movq	8(%rsp), %rcx
	movq	32(%rcx), %rcx
	movq	%rcx, 48(%rax)
	movq	8(%rsp), %rcx
	movq	40(%rcx), %rcx
	movq	%rcx, 56(%rax)
	movq	%rcx, 56(%rbx)
	movq	40(%rsp), %rax
	movq	(%rax), %rax
	movq	%rax, 64(%rbx)
	movq	40(%rsp), %rax
	movq	8(%rax), %rax
	movq	%rax, 72(%rbx)
	movq	40(%rsp), %rax
	movq	16(%rax), %rax
	movq	%rax, 80(%rbx)
	movq	40(%rsp), %rax
	movq	24(%rax), %rax
	movq	%rax, 88(%rbx)
	movq	40(%rsp), %rax
	movq	32(%rax), %rax
	movq	%rax, 96(%rbx)
	movq	56(%rbx), %rax
	movq	%rax, 56(%r15)
	movl	$104, %edi
	callq	_malloc
	movq	%rax, %rbx
	movl	$64, %edi
	callq	_malloc
	movq	24(%rsp), %rcx
	movq	(%rcx), %rcx
	movq	%rcx, (%rax)
	movq	24(%rsp), %rcx
	movq	8(%rcx), %rcx
	movq	%rcx, 8(%rax)
	movq	8(%rsp), %rcx
	movq	(%rcx), %rcx
	movq	%rcx, 16(%rax)
	movq	8(%rsp), %rcx
	movq	8(%rcx), %rcx
	movq	%rcx, 24(%rax)
	movq	8(%rsp), %rcx
	movq	16(%rcx), %rcx
	movq	%rcx, 32(%rax)
	movq	8(%rsp), %rcx
	movq	24(%rcx), %rcx
	movq	%rcx, 40(%rax)
	movq	8(%rsp), %rcx
	movq	32(%rcx), %rcx
	movq	%rcx, 48(%rax)
	movq	8(%rsp), %rcx
	movq	40(%rcx), %rcx
	movq	%rcx, 56(%rax)
	movq	(%rax), %rax
	movq	%rax, (%rbx)
	movl	$64, %edi
	callq	_malloc
	movq	24(%rsp), %rcx
	movq	(%rcx), %rcx
	movq	%rcx, (%rax)
	movq	24(%rsp), %rcx
	movq	8(%rcx), %rcx
	movq	%rcx, 8(%rax)
	movq	8(%rsp), %rcx
	movq	(%rcx), %rcx
	movq	%rcx, 16(%rax)
	movq	8(%rsp), %rcx
	movq	8(%rcx), %rcx
	movq	%rcx, 24(%rax)
	movq	8(%rsp), %rcx
	movq	16(%rcx), %rcx
	movq	%rcx, 32(%rax)
	movq	8(%rsp), %rcx
	movq	24(%rcx), %rcx
	movq	%rcx, 40(%rax)
	movq	8(%rsp), %rcx
	movq	32(%rcx), %rcx
	movq	%rcx, 48(%rax)
	movq	8(%rsp), %rcx
	movq	40(%rcx), %rcx
	movq	%rcx, 56(%rax)
	movq	8(%rax), %rax
	movq	%rax, 8(%rbx)
	movl	$64, %edi
	callq	_malloc
	movq	24(%rsp), %rcx
	movq	(%rcx), %rcx
	movq	%rcx, (%rax)
	movq	24(%rsp), %rcx
	movq	8(%rcx), %rcx
	movq	%rcx, 8(%rax)
	movq	8(%rsp), %rcx
	movq	(%rcx), %rcx
	movq	%rcx, 16(%rax)
	movq	8(%rsp), %rcx
	movq	8(%rcx), %rcx
	movq	%rcx, 24(%rax)
	movq	8(%rsp), %rcx
	movq	16(%rcx), %rcx
	movq	%rcx, 32(%rax)
	movq	8(%rsp), %rcx
	movq	24(%rcx), %rcx
	movq	%rcx, 40(%rax)
	movq	8(%rsp), %rcx
	movq	32(%rcx), %rcx
	movq	%rcx, 48(%rax)
	movq	8(%rsp), %rcx
	movq	40(%rcx), %rcx
	movq	%rcx, 56(%rax)
	movq	16(%rax), %rax
	movq	%rax, 16(%rbx)
	movl	$64, %edi
	callq	_malloc
	movq	24(%rsp), %rcx
	movq	(%rcx), %rcx
	movq	%rcx, (%rax)
	movq	24(%rsp), %rcx
	movq	8(%rcx), %rcx
	movq	%rcx, 8(%rax)
	movq	8(%rsp), %rcx
	movq	(%rcx), %rcx
	movq	%rcx, 16(%rax)
	movq	8(%rsp), %rcx
	movq	8(%rcx), %rcx
	movq	%rcx, 24(%rax)
	movq	8(%rsp), %rdx
	movq	16(%rdx), %rdx
	movq	%rdx, 32(%rax)
	movq	8(%rsp), %rdx
	movq	24(%rdx), %rdx
	movq	%rdx, 40(%rax)
	movq	8(%rsp), %rdx
	movq	32(%rdx), %rdx
	movq	%rdx, 48(%rax)
	movq	8(%rsp), %rdx
	movq	40(%rdx), %rdx
	movq	%rdx, 56(%rax)
	movq	%rcx, 24(%rbx)
	movl	$64, %edi
	callq	_malloc
	movq	24(%rsp), %rcx
	movq	(%rcx), %rcx
	movq	%rcx, (%rax)
	movq	24(%rsp), %rcx
	movq	8(%rcx), %rcx
	movq	%rcx, 8(%rax)
	movq	8(%rsp), %rcx
	movq	(%rcx), %rcx
	movq	%rcx, 16(%rax)
	movq	8(%rsp), %rcx
	movq	8(%rcx), %rcx
	movq	%rcx, 24(%rax)
	movq	8(%rsp), %rcx
	movq	16(%rcx), %rcx
	movq	%rcx, 32(%rax)
	movq	8(%rsp), %rdx
	movq	24(%rdx), %rdx
	movq	%rdx, 40(%rax)
	movq	8(%rsp), %rdx
	movq	32(%rdx), %rdx
	movq	%rdx, 48(%rax)
	movq	8(%rsp), %rdx
	movq	40(%rdx), %rdx
	movq	%rdx, 56(%rax)
	movq	%rcx, 32(%rbx)
	movl	$64, %edi
	callq	_malloc
	movq	24(%rsp), %rcx
	movq	(%rcx), %rcx
	movq	%rcx, (%rax)
	movq	24(%rsp), %rcx
	movq	8(%rcx), %rcx
	movq	%rcx, 8(%rax)
	movq	8(%rsp), %rcx
	movq	(%rcx), %rcx
	movq	%rcx, 16(%rax)
	movq	8(%rsp), %rcx
	movq	8(%rcx), %rcx
	movq	%rcx, 24(%rax)
	movq	8(%rsp), %rcx
	movq	16(%rcx), %rcx
	movq	%rcx, 32(%rax)
	movq	8(%rsp), %rcx
	movq	24(%rcx), %rcx
	movq	%rcx, 40(%rax)
	movq	8(%rsp), %rdx
	movq	32(%rdx), %rdx
	movq	%rdx, 48(%rax)
	movq	8(%rsp), %rdx
	movq	40(%rdx), %rdx
	movq	%rdx, 56(%rax)
	movq	%rcx, 40(%rbx)
	movl	$64, %edi
	callq	_malloc
	movq	24(%rsp), %rcx
	movq	(%rcx), %rcx
	movq	%rcx, (%rax)
	movq	24(%rsp), %rcx
	movq	8(%rcx), %rcx
	movq	%rcx, 8(%rax)
	movq	8(%rsp), %rcx
	movq	(%rcx), %rcx
	movq	%rcx, 16(%rax)
	movq	8(%rsp), %rcx
	movq	8(%rcx), %rcx
	movq	%rcx, 24(%rax)
	movq	8(%rsp), %rcx
	movq	16(%rcx), %rcx
	movq	%rcx, 32(%rax)
	movq	8(%rsp), %rcx
	movq	24(%rcx), %rcx
	movq	%rcx, 40(%rax)
	movq	8(%rsp), %rcx
	movq	32(%rcx), %rcx
	movq	%rcx, 48(%rax)
	movq	8(%rsp), %rdx
	movq	40(%rdx), %rdx
	movq	%rdx, 56(%rax)
	movq	%rcx, 48(%rbx)
	movl	$64, %edi
	callq	_malloc
	movq	24(%rsp), %rcx
	movq	(%rcx), %rcx
	movq	%rcx, (%rax)
	movq	24(%rsp), %rcx
	movq	8(%rcx), %rcx
	movq	%rcx, 8(%rax)
	movq	8(%rsp), %rcx
	movq	(%rcx), %rcx
	movq	%rcx, 16(%rax)
	movq	8(%rsp), %rcx
	movq	8(%rcx), %rcx
	movq	%rcx, 24(%rax)
	movq	8(%rsp), %rcx
	movq	16(%rcx), %rcx
	movq	%rcx, 32(%rax)
	movq	8(%rsp), %rcx
	movq	24(%rcx), %rcx
	movq	%rcx, 40(%rax)
	movq	8(%rsp), %rcx
	movq	32(%rcx), %rcx
	movq	%rcx, 48(%rax)
	movq	8(%rsp), %rcx
	movq	40(%rcx), %rcx
	movq	%rcx, 56(%rax)
	movq	%rcx, 56(%rbx)
	movq	40(%rsp), %rax
	movq	(%rax), %rax
	movq	%rax, 64(%rbx)
	movq	40(%rsp), %rcx
	movq	8(%rcx), %rcx
	movq	%rcx, 72(%rbx)
	movq	40(%rsp), %rcx
	movq	16(%rcx), %rcx
	movq	%rcx, 80(%rbx)
	movq	40(%rsp), %rcx
	movq	24(%rcx), %rcx
	movq	%rcx, 88(%rbx)
	movq	40(%rsp), %rcx
	movq	32(%rcx), %rcx
	movq	%rcx, 96(%rbx)
	movq	%rax, 64(%r15)
	movl	$104, %edi
	callq	_malloc
	movq	%rax, %rbx
	movl	$64, %edi
	callq	_malloc
	movq	24(%rsp), %rcx
	movq	(%rcx), %rcx
	movq	%rcx, (%rax)
	movq	24(%rsp), %rcx
	movq	8(%rcx), %rcx
	movq	%rcx, 8(%rax)
	movq	8(%rsp), %rcx
	movq	(%rcx), %rcx
	movq	%rcx, 16(%rax)
	movq	8(%rsp), %rcx
	movq	8(%rcx), %rcx
	movq	%rcx, 24(%rax)
	movq	8(%rsp), %rcx
	movq	16(%rcx), %rcx
	movq	%rcx, 32(%rax)
	movq	8(%rsp), %rcx
	movq	24(%rcx), %rcx
	movq	%rcx, 40(%rax)
	movq	8(%rsp), %rcx
	movq	32(%rcx), %rcx
	movq	%rcx, 48(%rax)
	movq	8(%rsp), %rcx
	movq	40(%rcx), %rcx
	movq	%rcx, 56(%rax)
	movq	(%rax), %rax
	movq	%rax, (%rbx)
	movl	$64, %edi
	callq	_malloc
	movq	24(%rsp), %rcx
	movq	(%rcx), %rcx
	movq	%rcx, (%rax)
	movq	24(%rsp), %rcx
	movq	8(%rcx), %rcx
	movq	%rcx, 8(%rax)
	movq	8(%rsp), %rcx
	movq	(%rcx), %rcx
	movq	%rcx, 16(%rax)
	movq	8(%rsp), %rcx
	movq	8(%rcx), %rcx
	movq	%rcx, 24(%rax)
	movq	8(%rsp), %rcx
	movq	16(%rcx), %rcx
	movq	%rcx, 32(%rax)
	movq	8(%rsp), %rcx
	movq	24(%rcx), %rcx
	movq	%rcx, 40(%rax)
	movq	8(%rsp), %rcx
	movq	32(%rcx), %rcx
	movq	%rcx, 48(%rax)
	movq	8(%rsp), %rcx
	movq	40(%rcx), %rcx
	movq	%rcx, 56(%rax)
	movq	8(%rax), %rax
	movq	%rax, 8(%rbx)
	movl	$64, %edi
	callq	_malloc
	movq	24(%rsp), %rcx
	movq	(%rcx), %rcx
	movq	%rcx, (%rax)
	movq	24(%rsp), %rcx
	movq	8(%rcx), %rcx
	movq	%rcx, 8(%rax)
	movq	8(%rsp), %rcx
	movq	(%rcx), %rcx
	movq	%rcx, 16(%rax)
	movq	8(%rsp), %rcx
	movq	8(%rcx), %rcx
	movq	%rcx, 24(%rax)
	movq	8(%rsp), %rcx
	movq	16(%rcx), %rcx
	movq	%rcx, 32(%rax)
	movq	8(%rsp), %rcx
	movq	24(%rcx), %rcx
	movq	%rcx, 40(%rax)
	movq	8(%rsp), %rcx
	movq	32(%rcx), %rcx
	movq	%rcx, 48(%rax)
	movq	8(%rsp), %rcx
	movq	40(%rcx), %rcx
	movq	%rcx, 56(%rax)
	movq	16(%rax), %rax
	movq	%rax, 16(%rbx)
	movl	$64, %edi
	callq	_malloc
	movq	24(%rsp), %rcx
	movq	(%rcx), %rcx
	movq	%rcx, (%rax)
	movq	24(%rsp), %rcx
	movq	8(%rcx), %rcx
	movq	%rcx, 8(%rax)
	movq	8(%rsp), %rcx
	movq	(%rcx), %rcx
	movq	%rcx, 16(%rax)
	movq	8(%rsp), %rcx
	movq	8(%rcx), %rcx
	movq	%rcx, 24(%rax)
	movq	8(%rsp), %rdx
	movq	16(%rdx), %rdx
	movq	%rdx, 32(%rax)
	movq	8(%rsp), %rdx
	movq	24(%rdx), %rdx
	movq	%rdx, 40(%rax)
	movq	8(%rsp), %rdx
	movq	32(%rdx), %rdx
	movq	%rdx, 48(%rax)
	movq	8(%rsp), %rdx
	movq	40(%rdx), %rdx
	movq	%rdx, 56(%rax)
	movq	%rcx, 24(%rbx)
	movl	$64, %edi
	callq	_malloc
	movq	24(%rsp), %rcx
	movq	(%rcx), %rcx
	movq	%rcx, (%rax)
	movq	24(%rsp), %rcx
	movq	8(%rcx), %rcx
	movq	%rcx, 8(%rax)
	movq	8(%rsp), %rcx
	movq	(%rcx), %rcx
	movq	%rcx, 16(%rax)
	movq	8(%rsp), %rcx
	movq	8(%rcx), %rcx
	movq	%rcx, 24(%rax)
	movq	8(%rsp), %rcx
	movq	16(%rcx), %rcx
	movq	%rcx, 32(%rax)
	movq	8(%rsp), %rdx
	movq	24(%rdx), %rdx
	movq	%rdx, 40(%rax)
	movq	8(%rsp), %rdx
	movq	32(%rdx), %rdx
	movq	%rdx, 48(%rax)
	movq	8(%rsp), %rdx
	movq	40(%rdx), %rdx
	movq	%rdx, 56(%rax)
	movq	%rcx, 32(%rbx)
	movl	$64, %edi
	callq	_malloc
	movq	24(%rsp), %rcx
	movq	(%rcx), %rcx
	movq	%rcx, (%rax)
	movq	24(%rsp), %rcx
	movq	8(%rcx), %rcx
	movq	%rcx, 8(%rax)
	movq	8(%rsp), %rcx
	movq	(%rcx), %rcx
	movq	%rcx, 16(%rax)
	movq	8(%rsp), %rcx
	movq	8(%rcx), %rcx
	movq	%rcx, 24(%rax)
	movq	8(%rsp), %rcx
	movq	16(%rcx), %rcx
	movq	%rcx, 32(%rax)
	movq	8(%rsp), %rcx
	movq	24(%rcx), %rcx
	movq	%rcx, 40(%rax)
	movq	8(%rsp), %rdx
	movq	32(%rdx), %rdx
	movq	%rdx, 48(%rax)
	movq	8(%rsp), %rdx
	movq	40(%rdx), %rdx
	movq	%rdx, 56(%rax)
	movq	%rcx, 40(%rbx)
	movl	$64, %edi
	callq	_malloc
	movq	24(%rsp), %rcx
	movq	(%rcx), %rcx
	movq	%rcx, (%rax)
	movq	24(%rsp), %rcx
	movq	8(%rcx), %rcx
	movq	%rcx, 8(%rax)
	movq	8(%rsp), %rcx
	movq	(%rcx), %rcx
	movq	%rcx, 16(%rax)
	movq	8(%rsp), %rcx
	movq	8(%rcx), %rcx
	movq	%rcx, 24(%rax)
	movq	8(%rsp), %rcx
	movq	16(%rcx), %rcx
	movq	%rcx, 32(%rax)
	movq	8(%rsp), %rcx
	movq	24(%rcx), %rcx
	movq	%rcx, 40(%rax)
	movq	8(%rsp), %rcx
	movq	32(%rcx), %rcx
	movq	%rcx, 48(%rax)
	movq	8(%rsp), %rdx
	movq	40(%rdx), %rdx
	movq	%rdx, 56(%rax)
	movq	%rcx, 48(%rbx)
	movl	$64, %edi
	callq	_malloc
	movq	24(%rsp), %rcx
	movq	(%rcx), %rcx
	movq	%rcx, (%rax)
	movq	24(%rsp), %rcx
	movq	8(%rcx), %rcx
	movq	%rcx, 8(%rax)
	movq	8(%rsp), %rcx
	movq	(%rcx), %rcx
	movq	%rcx, 16(%rax)
	movq	8(%rsp), %rcx
	movq	8(%rcx), %rcx
	movq	%rcx, 24(%rax)
	movq	8(%rsp), %rcx
	movq	16(%rcx), %rcx
	movq	%rcx, 32(%rax)
	movq	8(%rsp), %rcx
	movq	24(%rcx), %rcx
	movq	%rcx, 40(%rax)
	movq	8(%rsp), %rcx
	movq	32(%rcx), %rcx
	movq	%rcx, 48(%rax)
	movq	8(%rsp), %rcx
	movq	40(%rcx), %rcx
	movq	%rcx, 56(%rax)
	movq	%rcx, 56(%rbx)
	movq	40(%rsp), %rax
	movq	(%rax), %rax
	movq	%rax, 64(%rbx)
	movq	40(%rsp), %rax
	movq	8(%rax), %rax
	movq	%rax, 72(%rbx)
	movq	40(%rsp), %rcx
	movq	16(%rcx), %rcx
	movq	%rcx, 80(%rbx)
	movq	40(%rsp), %rcx
	movq	24(%rcx), %rcx
	movq	%rcx, 88(%rbx)
	movq	40(%rsp), %rcx
	movq	32(%rcx), %rcx
	movq	%rcx, 96(%rbx)
	movq	%rax, 72(%r15)
	movl	$104, %edi
	callq	_malloc
	movq	%rax, %rbx
	movl	$64, %edi
	callq	_malloc
	movq	24(%rsp), %rcx
	movq	(%rcx), %rcx
	movq	%rcx, (%rax)
	movq	24(%rsp), %rcx
	movq	8(%rcx), %rcx
	movq	%rcx, 8(%rax)
	movq	8(%rsp), %rcx
	movq	(%rcx), %rcx
	movq	%rcx, 16(%rax)
	movq	8(%rsp), %rcx
	movq	8(%rcx), %rcx
	movq	%rcx, 24(%rax)
	movq	8(%rsp), %rcx
	movq	16(%rcx), %rcx
	movq	%rcx, 32(%rax)
	movq	8(%rsp), %rcx
	movq	24(%rcx), %rcx
	movq	%rcx, 40(%rax)
	movq	8(%rsp), %rcx
	movq	32(%rcx), %rcx
	movq	%rcx, 48(%rax)
	movq	8(%rsp), %rcx
	movq	40(%rcx), %rcx
	movq	%rcx, 56(%rax)
	movq	(%rax), %rax
	movq	%rax, (%rbx)
	movl	$64, %edi
	callq	_malloc
	movq	24(%rsp), %rcx
	movq	(%rcx), %rcx
	movq	%rcx, (%rax)
	movq	24(%rsp), %rcx
	movq	8(%rcx), %rcx
	movq	%rcx, 8(%rax)
	movq	8(%rsp), %rcx
	movq	(%rcx), %rcx
	movq	%rcx, 16(%rax)
	movq	8(%rsp), %rcx
	movq	8(%rcx), %rcx
	movq	%rcx, 24(%rax)
	movq	8(%rsp), %rcx
	movq	16(%rcx), %rcx
	movq	%rcx, 32(%rax)
	movq	8(%rsp), %rcx
	movq	24(%rcx), %rcx
	movq	%rcx, 40(%rax)
	movq	8(%rsp), %rcx
	movq	32(%rcx), %rcx
	movq	%rcx, 48(%rax)
	movq	8(%rsp), %rcx
	movq	40(%rcx), %rcx
	movq	%rcx, 56(%rax)
	movq	8(%rax), %rax
	movq	%rax, 8(%rbx)
	movl	$64, %edi
	callq	_malloc
	movq	24(%rsp), %rcx
	movq	(%rcx), %rcx
	movq	%rcx, (%rax)
	movq	24(%rsp), %rcx
	movq	8(%rcx), %rcx
	movq	%rcx, 8(%rax)
	movq	8(%rsp), %rcx
	movq	(%rcx), %rcx
	movq	%rcx, 16(%rax)
	movq	8(%rsp), %rcx
	movq	8(%rcx), %rcx
	movq	%rcx, 24(%rax)
	movq	8(%rsp), %rcx
	movq	16(%rcx), %rcx
	movq	%rcx, 32(%rax)
	movq	8(%rsp), %rcx
	movq	24(%rcx), %rcx
	movq	%rcx, 40(%rax)
	movq	8(%rsp), %rcx
	movq	32(%rcx), %rcx
	movq	%rcx, 48(%rax)
	movq	8(%rsp), %rcx
	movq	40(%rcx), %rcx
	movq	%rcx, 56(%rax)
	movq	16(%rax), %rax
	movq	%rax, 16(%rbx)
	movl	$64, %edi
	callq	_malloc
	movq	24(%rsp), %rcx
	movq	(%rcx), %rcx
	movq	%rcx, (%rax)
	movq	24(%rsp), %rcx
	movq	8(%rcx), %rcx
	movq	%rcx, 8(%rax)
	movq	8(%rsp), %rcx
	movq	(%rcx), %rcx
	movq	%rcx, 16(%rax)
	movq	8(%rsp), %rcx
	movq	8(%rcx), %rcx
	movq	%rcx, 24(%rax)
	movq	8(%rsp), %rdx
	movq	16(%rdx), %rdx
	movq	%rdx, 32(%rax)
	movq	8(%rsp), %rdx
	movq	24(%rdx), %rdx
	movq	%rdx, 40(%rax)
	movq	8(%rsp), %rdx
	movq	32(%rdx), %rdx
	movq	%rdx, 48(%rax)
	movq	8(%rsp), %rdx
	movq	40(%rdx), %rdx
	movq	%rdx, 56(%rax)
	movq	%rcx, 24(%rbx)
	movl	$64, %edi
	callq	_malloc
	movq	24(%rsp), %rcx
	movq	(%rcx), %rcx
	movq	%rcx, (%rax)
	movq	24(%rsp), %rcx
	movq	8(%rcx), %rcx
	movq	%rcx, 8(%rax)
	movq	8(%rsp), %rcx
	movq	(%rcx), %rcx
	movq	%rcx, 16(%rax)
	movq	8(%rsp), %rcx
	movq	8(%rcx), %rcx
	movq	%rcx, 24(%rax)
	movq	8(%rsp), %rcx
	movq	16(%rcx), %rcx
	movq	%rcx, 32(%rax)
	movq	8(%rsp), %rdx
	movq	24(%rdx), %rdx
	movq	%rdx, 40(%rax)
	movq	8(%rsp), %rdx
	movq	32(%rdx), %rdx
	movq	%rdx, 48(%rax)
	movq	8(%rsp), %rdx
	movq	40(%rdx), %rdx
	movq	%rdx, 56(%rax)
	movq	%rcx, 32(%rbx)
	movl	$64, %edi
	callq	_malloc
	movq	24(%rsp), %rcx
	movq	(%rcx), %rcx
	movq	%rcx, (%rax)
	movq	24(%rsp), %rcx
	movq	8(%rcx), %rcx
	movq	%rcx, 8(%rax)
	movq	8(%rsp), %rcx
	movq	(%rcx), %rcx
	movq	%rcx, 16(%rax)
	movq	8(%rsp), %rcx
	movq	8(%rcx), %rcx
	movq	%rcx, 24(%rax)
	movq	8(%rsp), %rcx
	movq	16(%rcx), %rcx
	movq	%rcx, 32(%rax)
	movq	8(%rsp), %rcx
	movq	24(%rcx), %rcx
	movq	%rcx, 40(%rax)
	movq	8(%rsp), %rdx
	movq	32(%rdx), %rdx
	movq	%rdx, 48(%rax)
	movq	8(%rsp), %rdx
	movq	40(%rdx), %rdx
	movq	%rdx, 56(%rax)
	movq	%rcx, 40(%rbx)
	movl	$64, %edi
	callq	_malloc
	movq	24(%rsp), %rcx
	movq	(%rcx), %rcx
	movq	%rcx, (%rax)
	movq	24(%rsp), %rcx
	movq	8(%rcx), %rcx
	movq	%rcx, 8(%rax)
	movq	8(%rsp), %rcx
	movq	(%rcx), %rcx
	movq	%rcx, 16(%rax)
	movq	8(%rsp), %rcx
	movq	8(%rcx), %rcx
	movq	%rcx, 24(%rax)
	movq	8(%rsp), %rcx
	movq	16(%rcx), %rcx
	movq	%rcx, 32(%rax)
	movq	8(%rsp), %rcx
	movq	24(%rcx), %rcx
	movq	%rcx, 40(%rax)
	movq	8(%rsp), %rcx
	movq	32(%rcx), %rcx
	movq	%rcx, 48(%rax)
	movq	8(%rsp), %rdx
	movq	40(%rdx), %rdx
	movq	%rdx, 56(%rax)
	movq	%rcx, 48(%rbx)
	movl	$64, %edi
	callq	_malloc
	movq	24(%rsp), %rcx
	movq	(%rcx), %rcx
	movq	%rcx, (%rax)
	movq	24(%rsp), %rcx
	movq	8(%rcx), %rcx
	movq	%rcx, 8(%rax)
	movq	8(%rsp), %rcx
	movq	(%rcx), %rcx
	movq	%rcx, 16(%rax)
	movq	8(%rsp), %rcx
	movq	8(%rcx), %rcx
	movq	%rcx, 24(%rax)
	movq	8(%rsp), %rcx
	movq	16(%rcx), %rcx
	movq	%rcx, 32(%rax)
	movq	8(%rsp), %rcx
	movq	24(%rcx), %rcx
	movq	%rcx, 40(%rax)
	movq	8(%rsp), %rcx
	movq	32(%rcx), %rcx
	movq	%rcx, 48(%rax)
	movq	8(%rsp), %rcx
	movq	40(%rcx), %rcx
	movq	%rcx, 56(%rax)
	movq	%rcx, 56(%rbx)
	movq	40(%rsp), %rax
	movq	(%rax), %rax
	movq	%rax, 64(%rbx)
	movq	40(%rsp), %rax
	movq	8(%rax), %rax
	movq	%rax, 72(%rbx)
	movq	40(%rsp), %rax
	movq	16(%rax), %rax
	movq	%rax, 80(%rbx)
	movq	40(%rsp), %rcx
	movq	24(%rcx), %rcx
	movq	%rcx, 88(%rbx)
	movq	40(%rsp), %rcx
	movq	32(%rcx), %rcx
	movq	%rcx, 96(%rbx)
	movq	%rax, 80(%r15)
	movl	$104, %edi
	callq	_malloc
	movq	%rax, %rbx
	movl	$64, %edi
	callq	_malloc
	movq	24(%rsp), %rcx
	movq	(%rcx), %rcx
	movq	%rcx, (%rax)
	movq	24(%rsp), %rcx
	movq	8(%rcx), %rcx
	movq	%rcx, 8(%rax)
	movq	8(%rsp), %rcx
	movq	(%rcx), %rcx
	movq	%rcx, 16(%rax)
	movq	8(%rsp), %rcx
	movq	8(%rcx), %rcx
	movq	%rcx, 24(%rax)
	movq	8(%rsp), %rcx
	movq	16(%rcx), %rcx
	movq	%rcx, 32(%rax)
	movq	8(%rsp), %rcx
	movq	24(%rcx), %rcx
	movq	%rcx, 40(%rax)
	movq	8(%rsp), %rcx
	movq	32(%rcx), %rcx
	movq	%rcx, 48(%rax)
	movq	8(%rsp), %rcx
	movq	40(%rcx), %rcx
	movq	%rcx, 56(%rax)
	movq	(%rax), %rax
	movq	%rax, (%rbx)
	movl	$64, %edi
	callq	_malloc
	movq	24(%rsp), %rcx
	movq	(%rcx), %rcx
	movq	%rcx, (%rax)
	movq	24(%rsp), %rcx
	movq	8(%rcx), %rcx
	movq	%rcx, 8(%rax)
	movq	8(%rsp), %rcx
	movq	(%rcx), %rcx
	movq	%rcx, 16(%rax)
	movq	8(%rsp), %rcx
	movq	8(%rcx), %rcx
	movq	%rcx, 24(%rax)
	movq	8(%rsp), %rcx
	movq	16(%rcx), %rcx
	movq	%rcx, 32(%rax)
	movq	8(%rsp), %rcx
	movq	24(%rcx), %rcx
	movq	%rcx, 40(%rax)
	movq	8(%rsp), %rcx
	movq	32(%rcx), %rcx
	movq	%rcx, 48(%rax)
	movq	8(%rsp), %rcx
	movq	40(%rcx), %rcx
	movq	%rcx, 56(%rax)
	movq	8(%rax), %rax
	movq	%rax, 8(%rbx)
	movl	$64, %edi
	callq	_malloc
	movq	24(%rsp), %rcx
	movq	(%rcx), %rcx
	movq	%rcx, (%rax)
	movq	24(%rsp), %rcx
	movq	8(%rcx), %rcx
	movq	%rcx, 8(%rax)
	movq	8(%rsp), %rcx
	movq	(%rcx), %rcx
	movq	%rcx, 16(%rax)
	movq	8(%rsp), %rcx
	movq	8(%rcx), %rcx
	movq	%rcx, 24(%rax)
	movq	8(%rsp), %rcx
	movq	16(%rcx), %rcx
	movq	%rcx, 32(%rax)
	movq	8(%rsp), %rcx
	movq	24(%rcx), %rcx
	movq	%rcx, 40(%rax)
	movq	8(%rsp), %rcx
	movq	32(%rcx), %rcx
	movq	%rcx, 48(%rax)
	movq	8(%rsp), %rcx
	movq	40(%rcx), %rcx
	movq	%rcx, 56(%rax)
	movq	16(%rax), %rax
	movq	%rax, 16(%rbx)
	movl	$64, %edi
	callq	_malloc
	movq	24(%rsp), %rcx
	movq	(%rcx), %rcx
	movq	%rcx, (%rax)
	movq	24(%rsp), %rcx
	movq	8(%rcx), %rcx
	movq	%rcx, 8(%rax)
	movq	8(%rsp), %rcx
	movq	(%rcx), %rcx
	movq	%rcx, 16(%rax)
	movq	8(%rsp), %rcx
	movq	8(%rcx), %rcx
	movq	%rcx, 24(%rax)
	movq	8(%rsp), %rdx
	movq	16(%rdx), %rdx
	movq	%rdx, 32(%rax)
	movq	8(%rsp), %rdx
	movq	24(%rdx), %rdx
	movq	%rdx, 40(%rax)
	movq	8(%rsp), %rdx
	movq	32(%rdx), %rdx
	movq	%rdx, 48(%rax)
	movq	8(%rsp), %rdx
	movq	40(%rdx), %rdx
	movq	%rdx, 56(%rax)
	movq	%rcx, 24(%rbx)
	movl	$64, %edi
	callq	_malloc
	movq	24(%rsp), %rcx
	movq	(%rcx), %rcx
	movq	%rcx, (%rax)
	movq	24(%rsp), %rcx
	movq	8(%rcx), %rcx
	movq	%rcx, 8(%rax)
	movq	8(%rsp), %rcx
	movq	(%rcx), %rcx
	movq	%rcx, 16(%rax)
	movq	8(%rsp), %rcx
	movq	8(%rcx), %rcx
	movq	%rcx, 24(%rax)
	movq	8(%rsp), %rcx
	movq	16(%rcx), %rcx
	movq	%rcx, 32(%rax)
	movq	8(%rsp), %rdx
	movq	24(%rdx), %rdx
	movq	%rdx, 40(%rax)
	movq	8(%rsp), %rdx
	movq	32(%rdx), %rdx
	movq	%rdx, 48(%rax)
	movq	8(%rsp), %rdx
	movq	40(%rdx), %rdx
	movq	%rdx, 56(%rax)
	movq	%rcx, 32(%rbx)
	movl	$64, %edi
	callq	_malloc
	movq	24(%rsp), %rcx
	movq	(%rcx), %rcx
	movq	%rcx, (%rax)
	movq	24(%rsp), %rcx
	movq	8(%rcx), %rcx
	movq	%rcx, 8(%rax)
	movq	8(%rsp), %rcx
	movq	(%rcx), %rcx
	movq	%rcx, 16(%rax)
	movq	8(%rsp), %rcx
	movq	8(%rcx), %rcx
	movq	%rcx, 24(%rax)
	movq	8(%rsp), %rcx
	movq	16(%rcx), %rcx
	movq	%rcx, 32(%rax)
	movq	8(%rsp), %rcx
	movq	24(%rcx), %rcx
	movq	%rcx, 40(%rax)
	movq	8(%rsp), %rdx
	movq	32(%rdx), %rdx
	movq	%rdx, 48(%rax)
	movq	8(%rsp), %rdx
	movq	40(%rdx), %rdx
	movq	%rdx, 56(%rax)
	movq	%rcx, 40(%rbx)
	movl	$64, %edi
	callq	_malloc
	movq	24(%rsp), %rcx
	movq	(%rcx), %rcx
	movq	%rcx, (%rax)
	movq	24(%rsp), %rcx
	movq	8(%rcx), %rcx
	movq	%rcx, 8(%rax)
	movq	8(%rsp), %rcx
	movq	(%rcx), %rcx
	movq	%rcx, 16(%rax)
	movq	8(%rsp), %rcx
	movq	8(%rcx), %rcx
	movq	%rcx, 24(%rax)
	movq	8(%rsp), %rcx
	movq	16(%rcx), %rcx
	movq	%rcx, 32(%rax)
	movq	8(%rsp), %rcx
	movq	24(%rcx), %rcx
	movq	%rcx, 40(%rax)
	movq	8(%rsp), %rcx
	movq	32(%rcx), %rcx
	movq	%rcx, 48(%rax)
	movq	8(%rsp), %rdx
	movq	40(%rdx), %rdx
	movq	%rdx, 56(%rax)
	movq	%rcx, 48(%rbx)
	movl	$64, %edi
	callq	_malloc
	movq	24(%rsp), %rcx
	movq	(%rcx), %rcx
	movq	%rcx, (%rax)
	movq	24(%rsp), %rcx
	movq	8(%rcx), %rcx
	movq	%rcx, 8(%rax)
	movq	8(%rsp), %rcx
	movq	(%rcx), %rcx
	movq	%rcx, 16(%rax)
	movq	8(%rsp), %rcx
	movq	8(%rcx), %rcx
	movq	%rcx, 24(%rax)
	movq	8(%rsp), %rcx
	movq	16(%rcx), %rcx
	movq	%rcx, 32(%rax)
	movq	8(%rsp), %rcx
	movq	24(%rcx), %rcx
	movq	%rcx, 40(%rax)
	movq	8(%rsp), %rcx
	movq	32(%rcx), %rcx
	movq	%rcx, 48(%rax)
	movq	8(%rsp), %rcx
	movq	40(%rcx), %rcx
	movq	%rcx, 56(%rax)
	movq	%rcx, 56(%rbx)
	movq	40(%rsp), %rax
	movq	(%rax), %rax
	movq	%rax, 64(%rbx)
	movq	40(%rsp), %rax
	movq	8(%rax), %rax
	movq	%rax, 72(%rbx)
	movq	40(%rsp), %rax
	movq	16(%rax), %rax
	movq	%rax, 80(%rbx)
	movq	40(%rsp), %rax
	movq	24(%rax), %rax
	movq	%rax, 88(%rbx)
	movq	40(%rsp), %rcx
	movq	32(%rcx), %rcx
	movq	%rcx, 96(%rbx)
	movq	%rax, 88(%r15)
	movl	$104, %edi
	callq	_malloc
	movq	%rax, %rbx
	movl	$64, %edi
	callq	_malloc
	movq	24(%rsp), %rcx
	movq	(%rcx), %rcx
	movq	%rcx, (%rax)
	movq	24(%rsp), %rcx
	movq	8(%rcx), %rcx
	movq	%rcx, 8(%rax)
	movq	8(%rsp), %rcx
	movq	(%rcx), %rcx
	movq	%rcx, 16(%rax)
	movq	8(%rsp), %rcx
	movq	8(%rcx), %rcx
	movq	%rcx, 24(%rax)
	movq	8(%rsp), %rcx
	movq	16(%rcx), %rcx
	movq	%rcx, 32(%rax)
	movq	8(%rsp), %rcx
	movq	24(%rcx), %rcx
	movq	%rcx, 40(%rax)
	movq	8(%rsp), %rcx
	movq	32(%rcx), %rcx
	movq	%rcx, 48(%rax)
	movq	8(%rsp), %rcx
	movq	40(%rcx), %rcx
	movq	%rcx, 56(%rax)
	movq	(%rax), %rax
	movq	%rax, (%rbx)
	movl	$64, %edi
	callq	_malloc
	movq	24(%rsp), %rcx
	movq	(%rcx), %rcx
	movq	%rcx, (%rax)
	movq	24(%rsp), %rcx
	movq	8(%rcx), %rcx
	movq	%rcx, 8(%rax)
	movq	8(%rsp), %rcx
	movq	(%rcx), %rcx
	movq	%rcx, 16(%rax)
	movq	8(%rsp), %rcx
	movq	8(%rcx), %rcx
	movq	%rcx, 24(%rax)
	movq	8(%rsp), %rcx
	movq	16(%rcx), %rcx
	movq	%rcx, 32(%rax)
	movq	8(%rsp), %rcx
	movq	24(%rcx), %rcx
	movq	%rcx, 40(%rax)
	movq	8(%rsp), %rcx
	movq	32(%rcx), %rcx
	movq	%rcx, 48(%rax)
	movq	8(%rsp), %rcx
	movq	40(%rcx), %rcx
	movq	%rcx, 56(%rax)
	movq	8(%rax), %rax
	movq	%rax, 8(%rbx)
	movl	$64, %edi
	callq	_malloc
	movq	24(%rsp), %rcx
	movq	(%rcx), %rcx
	movq	%rcx, (%rax)
	movq	24(%rsp), %rcx
	movq	8(%rcx), %rcx
	movq	%rcx, 8(%rax)
	movq	8(%rsp), %rcx
	movq	(%rcx), %rcx
	movq	%rcx, 16(%rax)
	movq	8(%rsp), %rcx
	movq	8(%rcx), %rcx
	movq	%rcx, 24(%rax)
	movq	8(%rsp), %rcx
	movq	16(%rcx), %rcx
	movq	%rcx, 32(%rax)
	movq	8(%rsp), %rcx
	movq	24(%rcx), %rcx
	movq	%rcx, 40(%rax)
	movq	8(%rsp), %rcx
	movq	32(%rcx), %rcx
	movq	%rcx, 48(%rax)
	movq	8(%rsp), %rcx
	movq	40(%rcx), %rcx
	movq	%rcx, 56(%rax)
	movq	16(%rax), %rax
	movq	%rax, 16(%rbx)
	movl	$64, %edi
	callq	_malloc
	movq	24(%rsp), %rcx
	movq	(%rcx), %rcx
	movq	%rcx, (%rax)
	movq	24(%rsp), %rcx
	movq	8(%rcx), %rcx
	movq	%rcx, 8(%rax)
	movq	8(%rsp), %rcx
	movq	(%rcx), %rcx
	movq	%rcx, 16(%rax)
	movq	8(%rsp), %rcx
	movq	8(%rcx), %rcx
	movq	%rcx, 24(%rax)
	movq	8(%rsp), %rdx
	movq	16(%rdx), %rdx
	movq	%rdx, 32(%rax)
	movq	8(%rsp), %rdx
	movq	24(%rdx), %rdx
	movq	%rdx, 40(%rax)
	movq	8(%rsp), %rdx
	movq	32(%rdx), %rdx
	movq	%rdx, 48(%rax)
	movq	8(%rsp), %rdx
	movq	40(%rdx), %rdx
	movq	%rdx, 56(%rax)
	movq	%rcx, 24(%rbx)
	movl	$64, %edi
	callq	_malloc
	movq	24(%rsp), %rcx
	movq	(%rcx), %rcx
	movq	%rcx, (%rax)
	movq	24(%rsp), %rcx
	movq	8(%rcx), %rcx
	movq	%rcx, 8(%rax)
	movq	8(%rsp), %rcx
	movq	(%rcx), %rcx
	movq	%rcx, 16(%rax)
	movq	8(%rsp), %rcx
	movq	8(%rcx), %rcx
	movq	%rcx, 24(%rax)
	movq	8(%rsp), %rcx
	movq	16(%rcx), %rcx
	movq	%rcx, 32(%rax)
	movq	8(%rsp), %rdx
	movq	24(%rdx), %rdx
	movq	%rdx, 40(%rax)
	movq	8(%rsp), %rdx
	movq	32(%rdx), %rdx
	movq	%rdx, 48(%rax)
	movq	8(%rsp), %rdx
	movq	40(%rdx), %rdx
	movq	%rdx, 56(%rax)
	movq	%rcx, 32(%rbx)
	movl	$64, %edi
	callq	_malloc
	movq	24(%rsp), %rcx
	movq	(%rcx), %rcx
	movq	%rcx, (%rax)
	movq	24(%rsp), %rcx
	movq	8(%rcx), %rcx
	movq	%rcx, 8(%rax)
	movq	8(%rsp), %rcx
	movq	(%rcx), %rcx
	movq	%rcx, 16(%rax)
	movq	8(%rsp), %rcx
	movq	8(%rcx), %rcx
	movq	%rcx, 24(%rax)
	movq	8(%rsp), %rcx
	movq	16(%rcx), %rcx
	movq	%rcx, 32(%rax)
	movq	8(%rsp), %rcx
	movq	24(%rcx), %rcx
	movq	%rcx, 40(%rax)
	movq	8(%rsp), %rdx
	movq	32(%rdx), %rdx
	movq	%rdx, 48(%rax)
	movq	8(%rsp), %rdx
	movq	40(%rdx), %rdx
	movq	%rdx, 56(%rax)
	movq	%rcx, 40(%rbx)
	movl	$64, %edi
	callq	_malloc
	movq	24(%rsp), %rcx
	movq	(%rcx), %rcx
	movq	%rcx, (%rax)
	movq	24(%rsp), %rcx
	movq	8(%rcx), %rcx
	movq	%rcx, 8(%rax)
	movq	8(%rsp), %rcx
	movq	(%rcx), %rcx
	movq	%rcx, 16(%rax)
	movq	8(%rsp), %rcx
	movq	8(%rcx), %rcx
	movq	%rcx, 24(%rax)
	movq	8(%rsp), %rcx
	movq	16(%rcx), %rcx
	movq	%rcx, 32(%rax)
	movq	8(%rsp), %rcx
	movq	24(%rcx), %rcx
	movq	%rcx, 40(%rax)
	movq	8(%rsp), %rcx
	movq	32(%rcx), %rcx
	movq	%rcx, 48(%rax)
	movq	8(%rsp), %rdx
	movq	40(%rdx), %rdx
	movq	%rdx, 56(%rax)
	movq	%rcx, 48(%rbx)
	movl	$64, %edi
	callq	_malloc
	movq	24(%rsp), %rcx
	movq	(%rcx), %rcx
	movq	%rcx, (%rax)
	movq	24(%rsp), %rcx
	movq	8(%rcx), %rcx
	movq	%rcx, 8(%rax)
	movq	8(%rsp), %rcx
	movq	(%rcx), %rcx
	movq	%rcx, 16(%rax)
	movq	8(%rsp), %rcx
	movq	8(%rcx), %rcx
	movq	%rcx, 24(%rax)
	movq	8(%rsp), %rcx
	movq	16(%rcx), %rcx
	movq	%rcx, 32(%rax)
	movq	8(%rsp), %rcx
	movq	24(%rcx), %rcx
	movq	%rcx, 40(%rax)
	movq	8(%rsp), %rcx
	movq	32(%rcx), %rcx
	movq	%rcx, 48(%rax)
	movq	8(%rsp), %rcx
	movq	40(%rcx), %rcx
	movq	%rcx, 56(%rax)
	movq	%rcx, 56(%rbx)
	movq	40(%rsp), %rax
	movq	(%rax), %rax
	movq	%rax, 64(%rbx)
	movq	40(%rsp), %rax
	movq	8(%rax), %rax
	movq	%rax, 72(%rbx)
	movq	40(%rsp), %rax
	movq	16(%rax), %rax
	movq	%rax, 80(%rbx)
	movq	40(%rsp), %rax
	movq	24(%rax), %rax
	movq	%rax, 88(%rbx)
	movq	40(%rsp), %rax
	movq	32(%rax), %rax
	movq	%rax, 96(%rbx)
	movq	%rax, 96(%r15)
	movq	56(%rsp), %rax
	movq	(%rax), %rax
	movq	%rax, 104(%r15)
	movq	56(%rsp), %rax
	movq	8(%rax), %rax
	movq	%rax, 112(%r15)
	movq	56(%rsp), %rax
	movq	16(%rax), %rax
	movq	%rax, 120(%r15)
	movq	56(%rsp), %rax
	movq	24(%rax), %rax
	movq	%rax, 128(%r15)
	movq	56(%rsp), %rax
	movq	32(%rax), %rax
	movq	%rax, 136(%r15)
	movq	(%r15), %rax
	movq	%rax, (%r14)
	movl	$144, %edi
	callq	_malloc
	movq	%rax, %r15
	movl	$104, %edi
	callq	_malloc
	movq	%rax, %rbx
	movl	$64, %edi
	callq	_malloc
	movq	24(%rsp), %rcx
	movq	(%rcx), %rcx
	movq	%rcx, (%rax)
	movq	24(%rsp), %rcx
	movq	8(%rcx), %rcx
	movq	%rcx, 8(%rax)
	movq	8(%rsp), %rcx
	movq	(%rcx), %rcx
	movq	%rcx, 16(%rax)
	movq	8(%rsp), %rcx
	movq	8(%rcx), %rcx
	movq	%rcx, 24(%rax)
	movq	8(%rsp), %rcx
	movq	16(%rcx), %rcx
	movq	%rcx, 32(%rax)
	movq	8(%rsp), %rcx
	movq	24(%rcx), %rcx
	movq	%rcx, 40(%rax)
	movq	8(%rsp), %rcx
	movq	32(%rcx), %rcx
	movq	%rcx, 48(%rax)
	movq	8(%rsp), %rcx
	movq	40(%rcx), %rcx
	movq	%rcx, 56(%rax)
	movq	(%rax), %rax
	movq	%rax, (%rbx)
	movl	$64, %edi
	callq	_malloc
	movq	24(%rsp), %rcx
	movq	(%rcx), %rcx
	movq	%rcx, (%rax)
	movq	24(%rsp), %rcx
	movq	8(%rcx), %rcx
	movq	%rcx, 8(%rax)
	movq	8(%rsp), %rcx
	movq	(%rcx), %rcx
	movq	%rcx, 16(%rax)
	movq	8(%rsp), %rcx
	movq	8(%rcx), %rcx
	movq	%rcx, 24(%rax)
	movq	8(%rsp), %rcx
	movq	16(%rcx), %rcx
	movq	%rcx, 32(%rax)
	movq	8(%rsp), %rcx
	movq	24(%rcx), %rcx
	movq	%rcx, 40(%rax)
	movq	8(%rsp), %rcx
	movq	32(%rcx), %rcx
	movq	%rcx, 48(%rax)
	movq	8(%rsp), %rcx
	movq	40(%rcx), %rcx
	movq	%rcx, 56(%rax)
	movq	8(%rax), %rax
	movq	%rax, 8(%rbx)
	movl	$64, %edi
	callq	_malloc
	movq	24(%rsp), %rcx
	movq	(%rcx), %rcx
	movq	%rcx, (%rax)
	movq	24(%rsp), %rcx
	movq	8(%rcx), %rcx
	movq	%rcx, 8(%rax)
	movq	8(%rsp), %rcx
	movq	(%rcx), %rcx
	movq	%rcx, 16(%rax)
	movq	8(%rsp), %rcx
	movq	8(%rcx), %rcx
	movq	%rcx, 24(%rax)
	movq	8(%rsp), %rcx
	movq	16(%rcx), %rcx
	movq	%rcx, 32(%rax)
	movq	8(%rsp), %rcx
	movq	24(%rcx), %rcx
	movq	%rcx, 40(%rax)
	movq	8(%rsp), %rcx
	movq	32(%rcx), %rcx
	movq	%rcx, 48(%rax)
	movq	8(%rsp), %rcx
	movq	40(%rcx), %rcx
	movq	%rcx, 56(%rax)
	movq	16(%rax), %rax
	movq	%rax, 16(%rbx)
	movl	$64, %edi
	callq	_malloc
	movq	24(%rsp), %rcx
	movq	(%rcx), %rcx
	movq	%rcx, (%rax)
	movq	24(%rsp), %rcx
	movq	8(%rcx), %rcx
	movq	%rcx, 8(%rax)
	movq	8(%rsp), %rcx
	movq	(%rcx), %rcx
	movq	%rcx, 16(%rax)
	movq	8(%rsp), %rcx
	movq	8(%rcx), %rcx
	movq	%rcx, 24(%rax)
	movq	8(%rsp), %rdx
	movq	16(%rdx), %rdx
	movq	%rdx, 32(%rax)
	movq	8(%rsp), %rdx
	movq	24(%rdx), %rdx
	movq	%rdx, 40(%rax)
	movq	8(%rsp), %rdx
	movq	32(%rdx), %rdx
	movq	%rdx, 48(%rax)
	movq	8(%rsp), %rdx
	movq	40(%rdx), %rdx
	movq	%rdx, 56(%rax)
	movq	%rcx, 24(%rbx)
	movl	$64, %edi
	callq	_malloc
	movq	24(%rsp), %rcx
	movq	(%rcx), %rcx
	movq	%rcx, (%rax)
	movq	24(%rsp), %rcx
	movq	8(%rcx), %rcx
	movq	%rcx, 8(%rax)
	movq	8(%rsp), %rcx
	movq	(%rcx), %rcx
	movq	%rcx, 16(%rax)
	movq	8(%rsp), %rcx
	movq	8(%rcx), %rcx
	movq	%rcx, 24(%rax)
	movq	8(%rsp), %rcx
	movq	16(%rcx), %rcx
	movq	%rcx, 32(%rax)
	movq	8(%rsp), %rdx
	movq	24(%rdx), %rdx
	movq	%rdx, 40(%rax)
	movq	8(%rsp), %rdx
	movq	32(%rdx), %rdx
	movq	%rdx, 48(%rax)
	movq	8(%rsp), %rdx
	movq	40(%rdx), %rdx
	movq	%rdx, 56(%rax)
	movq	%rcx, 32(%rbx)
	movl	$64, %edi
	callq	_malloc
	movq	24(%rsp), %rcx
	movq	(%rcx), %rcx
	movq	%rcx, (%rax)
	movq	24(%rsp), %rcx
	movq	8(%rcx), %rcx
	movq	%rcx, 8(%rax)
	movq	8(%rsp), %rcx
	movq	(%rcx), %rcx
	movq	%rcx, 16(%rax)
	movq	8(%rsp), %rcx
	movq	8(%rcx), %rcx
	movq	%rcx, 24(%rax)
	movq	8(%rsp), %rcx
	movq	16(%rcx), %rcx
	movq	%rcx, 32(%rax)
	movq	8(%rsp), %rcx
	movq	24(%rcx), %rcx
	movq	%rcx, 40(%rax)
	movq	8(%rsp), %rdx
	movq	32(%rdx), %rdx
	movq	%rdx, 48(%rax)
	movq	8(%rsp), %rdx
	movq	40(%rdx), %rdx
	movq	%rdx, 56(%rax)
	movq	%rcx, 40(%rbx)
	movl	$64, %edi
	callq	_malloc
	movq	24(%rsp), %rcx
	movq	(%rcx), %rcx
	movq	%rcx, (%rax)
	movq	24(%rsp), %rcx
	movq	8(%rcx), %rcx
	movq	%rcx, 8(%rax)
	movq	8(%rsp), %rcx
	movq	(%rcx), %rcx
	movq	%rcx, 16(%rax)
	movq	8(%rsp), %rcx
	movq	8(%rcx), %rcx
	movq	%rcx, 24(%rax)
	movq	8(%rsp), %rcx
	movq	16(%rcx), %rcx
	movq	%rcx, 32(%rax)
	movq	8(%rsp), %rcx
	movq	24(%rcx), %rcx
	movq	%rcx, 40(%rax)
	movq	8(%rsp), %rcx
	movq	32(%rcx), %rcx
	movq	%rcx, 48(%rax)
	movq	8(%rsp), %rdx
	movq	40(%rdx), %rdx
	movq	%rdx, 56(%rax)
	movq	%rcx, 48(%rbx)
	movl	$64, %edi
	callq	_malloc
	movq	24(%rsp), %rcx
	movq	(%rcx), %rcx
	movq	%rcx, (%rax)
	movq	24(%rsp), %rcx
	movq	8(%rcx), %rcx
	movq	%rcx, 8(%rax)
	movq	8(%rsp), %rcx
	movq	(%rcx), %rcx
	movq	%rcx, 16(%rax)
	movq	8(%rsp), %rcx
	movq	8(%rcx), %rcx
	movq	%rcx, 24(%rax)
	movq	8(%rsp), %rcx
	movq	16(%rcx), %rcx
	movq	%rcx, 32(%rax)
	movq	8(%rsp), %rcx
	movq	24(%rcx), %rcx
	movq	%rcx, 40(%rax)
	movq	8(%rsp), %rcx
	movq	32(%rcx), %rcx
	movq	%rcx, 48(%rax)
	movq	8(%rsp), %rcx
	movq	40(%rcx), %rcx
	movq	%rcx, 56(%rax)
	movq	%rcx, 56(%rbx)
	movq	40(%rsp), %rax
	movq	(%rax), %rax
	movq	%rax, 64(%rbx)
	movq	40(%rsp), %rax
	movq	8(%rax), %rax
	movq	%rax, 72(%rbx)
	movq	40(%rsp), %rax
	movq	16(%rax), %rax
	movq	%rax, 80(%rbx)
	movq	40(%rsp), %rax
	movq	24(%rax), %rax
	movq	%rax, 88(%rbx)
	movq	40(%rsp), %rax
	movq	32(%rax), %rax
	movq	%rax, 96(%rbx)
	movq	(%rbx), %rax
	movq	%rax, (%r15)
	movl	$104, %edi
	callq	_malloc
	movq	%rax, %rbx
	movl	$64, %edi
	callq	_malloc
	movq	24(%rsp), %rcx
	movq	(%rcx), %rcx
	movq	%rcx, (%rax)
	movq	24(%rsp), %rcx
	movq	8(%rcx), %rcx
	movq	%rcx, 8(%rax)
	movq	8(%rsp), %rcx
	movq	(%rcx), %rcx
	movq	%rcx, 16(%rax)
	movq	8(%rsp), %rcx
	movq	8(%rcx), %rcx
	movq	%rcx, 24(%rax)
	movq	8(%rsp), %rcx
	movq	16(%rcx), %rcx
	movq	%rcx, 32(%rax)
	movq	8(%rsp), %rcx
	movq	24(%rcx), %rcx
	movq	%rcx, 40(%rax)
	movq	8(%rsp), %rcx
	movq	32(%rcx), %rcx
	movq	%rcx, 48(%rax)
	movq	8(%rsp), %rcx
	movq	40(%rcx), %rcx
	movq	%rcx, 56(%rax)
	movq	(%rax), %rax
	movq	%rax, (%rbx)
	movl	$64, %edi
	callq	_malloc
	movq	24(%rsp), %rcx
	movq	(%rcx), %rcx
	movq	%rcx, (%rax)
	movq	24(%rsp), %rcx
	movq	8(%rcx), %rcx
	movq	%rcx, 8(%rax)
	movq	8(%rsp), %rcx
	movq	(%rcx), %rcx
	movq	%rcx, 16(%rax)
	movq	8(%rsp), %rcx
	movq	8(%rcx), %rcx
	movq	%rcx, 24(%rax)
	movq	8(%rsp), %rcx
	movq	16(%rcx), %rcx
	movq	%rcx, 32(%rax)
	movq	8(%rsp), %rcx
	movq	24(%rcx), %rcx
	movq	%rcx, 40(%rax)
	movq	8(%rsp), %rcx
	movq	32(%rcx), %rcx
	movq	%rcx, 48(%rax)
	movq	8(%rsp), %rcx
	movq	40(%rcx), %rcx
	movq	%rcx, 56(%rax)
	movq	8(%rax), %rax
	movq	%rax, 8(%rbx)
	movl	$64, %edi
	callq	_malloc
	movq	24(%rsp), %rcx
	movq	(%rcx), %rcx
	movq	%rcx, (%rax)
	movq	24(%rsp), %rcx
	movq	8(%rcx), %rcx
	movq	%rcx, 8(%rax)
	movq	8(%rsp), %rcx
	movq	(%rcx), %rcx
	movq	%rcx, 16(%rax)
	movq	8(%rsp), %rcx
	movq	8(%rcx), %rcx
	movq	%rcx, 24(%rax)
	movq	8(%rsp), %rcx
	movq	16(%rcx), %rcx
	movq	%rcx, 32(%rax)
	movq	8(%rsp), %rcx
	movq	24(%rcx), %rcx
	movq	%rcx, 40(%rax)
	movq	8(%rsp), %rcx
	movq	32(%rcx), %rcx
	movq	%rcx, 48(%rax)
	movq	8(%rsp), %rcx
	movq	40(%rcx), %rcx
	movq	%rcx, 56(%rax)
	movq	16(%rax), %rax
	movq	%rax, 16(%rbx)
	movl	$64, %edi
	callq	_malloc
	movq	24(%rsp), %rcx
	movq	(%rcx), %rcx
	movq	%rcx, (%rax)
	movq	24(%rsp), %rcx
	movq	8(%rcx), %rcx
	movq	%rcx, 8(%rax)
	movq	8(%rsp), %rcx
	movq	(%rcx), %rcx
	movq	%rcx, 16(%rax)
	movq	8(%rsp), %rcx
	movq	8(%rcx), %rcx
	movq	%rcx, 24(%rax)
	movq	8(%rsp), %rdx
	movq	16(%rdx), %rdx
	movq	%rdx, 32(%rax)
	movq	8(%rsp), %rdx
	movq	24(%rdx), %rdx
	movq	%rdx, 40(%rax)
	movq	8(%rsp), %rdx
	movq	32(%rdx), %rdx
	movq	%rdx, 48(%rax)
	movq	8(%rsp), %rdx
	movq	40(%rdx), %rdx
	movq	%rdx, 56(%rax)
	movq	%rcx, 24(%rbx)
	movl	$64, %edi
	callq	_malloc
	movq	24(%rsp), %rcx
	movq	(%rcx), %rcx
	movq	%rcx, (%rax)
	movq	24(%rsp), %rcx
	movq	8(%rcx), %rcx
	movq	%rcx, 8(%rax)
	movq	8(%rsp), %rcx
	movq	(%rcx), %rcx
	movq	%rcx, 16(%rax)
	movq	8(%rsp), %rcx
	movq	8(%rcx), %rcx
	movq	%rcx, 24(%rax)
	movq	8(%rsp), %rcx
	movq	16(%rcx), %rcx
	movq	%rcx, 32(%rax)
	movq	8(%rsp), %rdx
	movq	24(%rdx), %rdx
	movq	%rdx, 40(%rax)
	movq	8(%rsp), %rdx
	movq	32(%rdx), %rdx
	movq	%rdx, 48(%rax)
	movq	8(%rsp), %rdx
	movq	40(%rdx), %rdx
	movq	%rdx, 56(%rax)
	movq	%rcx, 32(%rbx)
	movl	$64, %edi
	callq	_malloc
	movq	24(%rsp), %rcx
	movq	(%rcx), %rcx
	movq	%rcx, (%rax)
	movq	24(%rsp), %rcx
	movq	8(%rcx), %rcx
	movq	%rcx, 8(%rax)
	movq	8(%rsp), %rcx
	movq	(%rcx), %rcx
	movq	%rcx, 16(%rax)
	movq	8(%rsp), %rcx
	movq	8(%rcx), %rcx
	movq	%rcx, 24(%rax)
	movq	8(%rsp), %rcx
	movq	16(%rcx), %rcx
	movq	%rcx, 32(%rax)
	movq	8(%rsp), %rcx
	movq	24(%rcx), %rcx
	movq	%rcx, 40(%rax)
	movq	8(%rsp), %rdx
	movq	32(%rdx), %rdx
	movq	%rdx, 48(%rax)
	movq	8(%rsp), %rdx
	movq	40(%rdx), %rdx
	movq	%rdx, 56(%rax)
	movq	%rcx, 40(%rbx)
	movl	$64, %edi
	callq	_malloc
	movq	24(%rsp), %rcx
	movq	(%rcx), %rcx
	movq	%rcx, (%rax)
	movq	24(%rsp), %rcx
	movq	8(%rcx), %rcx
	movq	%rcx, 8(%rax)
	movq	8(%rsp), %rcx
	movq	(%rcx), %rcx
	movq	%rcx, 16(%rax)
	movq	8(%rsp), %rcx
	movq	8(%rcx), %rcx
	movq	%rcx, 24(%rax)
	movq	8(%rsp), %rcx
	movq	16(%rcx), %rcx
	movq	%rcx, 32(%rax)
	movq	8(%rsp), %rcx
	movq	24(%rcx), %rcx
	movq	%rcx, 40(%rax)
	movq	8(%rsp), %rcx
	movq	32(%rcx), %rcx
	movq	%rcx, 48(%rax)
	movq	8(%rsp), %rdx
	movq	40(%rdx), %rdx
	movq	%rdx, 56(%rax)
	movq	%rcx, 48(%rbx)
	movl	$64, %edi
	callq	_malloc
	movq	24(%rsp), %rcx
	movq	(%rcx), %rcx
	movq	%rcx, (%rax)
	movq	24(%rsp), %rcx
	movq	8(%rcx), %rcx
	movq	%rcx, 8(%rax)
	movq	8(%rsp), %rcx
	movq	(%rcx), %rcx
	movq	%rcx, 16(%rax)
	movq	8(%rsp), %rcx
	movq	8(%rcx), %rcx
	movq	%rcx, 24(%rax)
	movq	8(%rsp), %rcx
	movq	16(%rcx), %rcx
	movq	%rcx, 32(%rax)
	movq	8(%rsp), %rcx
	movq	24(%rcx), %rcx
	movq	%rcx, 40(%rax)
	movq	8(%rsp), %rcx
	movq	32(%rcx), %rcx
	movq	%rcx, 48(%rax)
	movq	8(%rsp), %rcx
	movq	40(%rcx), %rcx
	movq	%rcx, 56(%rax)
	movq	%rcx, 56(%rbx)
	movq	40(%rsp), %rax
	movq	(%rax), %rax
	movq	%rax, 64(%rbx)
	movq	40(%rsp), %rax
	movq	8(%rax), %rax
	movq	%rax, 72(%rbx)
	movq	40(%rsp), %rax
	movq	16(%rax), %rax
	movq	%rax, 80(%rbx)
	movq	40(%rsp), %rax
	movq	24(%rax), %rax
	movq	%rax, 88(%rbx)
	movq	40(%rsp), %rax
	movq	32(%rax), %rax
	movq	%rax, 96(%rbx)
	movq	8(%rbx), %rax
	movq	%rax, 8(%r15)
	movl	$104, %edi
	callq	_malloc
	movq	%rax, %rbx
	movl	$64, %edi
	callq	_malloc
	movq	24(%rsp), %rcx
	movq	(%rcx), %rcx
	movq	%rcx, (%rax)
	movq	24(%rsp), %rcx
	movq	8(%rcx), %rcx
	movq	%rcx, 8(%rax)
	movq	8(%rsp), %rcx
	movq	(%rcx), %rcx
	movq	%rcx, 16(%rax)
	movq	8(%rsp), %rcx
	movq	8(%rcx), %rcx
	movq	%rcx, 24(%rax)
	movq	8(%rsp), %rcx
	movq	16(%rcx), %rcx
	movq	%rcx, 32(%rax)
	movq	8(%rsp), %rcx
	movq	24(%rcx), %rcx
	movq	%rcx, 40(%rax)
	movq	8(%rsp), %rcx
	movq	32(%rcx), %rcx
	movq	%rcx, 48(%rax)
	movq	8(%rsp), %rcx
	movq	40(%rcx), %rcx
	movq	%rcx, 56(%rax)
	movq	(%rax), %rax
	movq	%rax, (%rbx)
	movl	$64, %edi
	callq	_malloc
	movq	24(%rsp), %rcx
	movq	(%rcx), %rcx
	movq	%rcx, (%rax)
	movq	24(%rsp), %rcx
	movq	8(%rcx), %rcx
	movq	%rcx, 8(%rax)
	movq	8(%rsp), %rcx
	movq	(%rcx), %rcx
	movq	%rcx, 16(%rax)
	movq	8(%rsp), %rcx
	movq	8(%rcx), %rcx
	movq	%rcx, 24(%rax)
	movq	8(%rsp), %rcx
	movq	16(%rcx), %rcx
	movq	%rcx, 32(%rax)
	movq	8(%rsp), %rcx
	movq	24(%rcx), %rcx
	movq	%rcx, 40(%rax)
	movq	8(%rsp), %rcx
	movq	32(%rcx), %rcx
	movq	%rcx, 48(%rax)
	movq	8(%rsp), %rcx
	movq	40(%rcx), %rcx
	movq	%rcx, 56(%rax)
	movq	8(%rax), %rax
	movq	%rax, 8(%rbx)
	movl	$64, %edi
	callq	_malloc
	movq	24(%rsp), %rcx
	movq	(%rcx), %rcx
	movq	%rcx, (%rax)
	movq	24(%rsp), %rcx
	movq	8(%rcx), %rcx
	movq	%rcx, 8(%rax)
	movq	8(%rsp), %rcx
	movq	(%rcx), %rcx
	movq	%rcx, 16(%rax)
	movq	8(%rsp), %rcx
	movq	8(%rcx), %rcx
	movq	%rcx, 24(%rax)
	movq	8(%rsp), %rcx
	movq	16(%rcx), %rcx
	movq	%rcx, 32(%rax)
	movq	8(%rsp), %rcx
	movq	24(%rcx), %rcx
	movq	%rcx, 40(%rax)
	movq	8(%rsp), %rcx
	movq	32(%rcx), %rcx
	movq	%rcx, 48(%rax)
	movq	8(%rsp), %rcx
	movq	40(%rcx), %rcx
	movq	%rcx, 56(%rax)
	movq	16(%rax), %rax
	movq	%rax, 16(%rbx)
	movl	$64, %edi
	callq	_malloc
	movq	24(%rsp), %rcx
	movq	(%rcx), %rcx
	movq	%rcx, (%rax)
	movq	24(%rsp), %rcx
	movq	8(%rcx), %rcx
	movq	%rcx, 8(%rax)
	movq	8(%rsp), %rcx
	movq	(%rcx), %rcx
	movq	%rcx, 16(%rax)
	movq	8(%rsp), %rcx
	movq	8(%rcx), %rcx
	movq	%rcx, 24(%rax)
	movq	8(%rsp), %rdx
	movq	16(%rdx), %rdx
	movq	%rdx, 32(%rax)
	movq	8(%rsp), %rdx
	movq	24(%rdx), %rdx
	movq	%rdx, 40(%rax)
	movq	8(%rsp), %rdx
	movq	32(%rdx), %rdx
	movq	%rdx, 48(%rax)
	movq	8(%rsp), %rdx
	movq	40(%rdx), %rdx
	movq	%rdx, 56(%rax)
	movq	%rcx, 24(%rbx)
	movl	$64, %edi
	callq	_malloc
	movq	24(%rsp), %rcx
	movq	(%rcx), %rcx
	movq	%rcx, (%rax)
	movq	24(%rsp), %rcx
	movq	8(%rcx), %rcx
	movq	%rcx, 8(%rax)
	movq	8(%rsp), %rcx
	movq	(%rcx), %rcx
	movq	%rcx, 16(%rax)
	movq	8(%rsp), %rcx
	movq	8(%rcx), %rcx
	movq	%rcx, 24(%rax)
	movq	8(%rsp), %rcx
	movq	16(%rcx), %rcx
	movq	%rcx, 32(%rax)
	movq	8(%rsp), %rdx
	movq	24(%rdx), %rdx
	movq	%rdx, 40(%rax)
	movq	8(%rsp), %rdx
	movq	32(%rdx), %rdx
	movq	%rdx, 48(%rax)
	movq	8(%rsp), %rdx
	movq	40(%rdx), %rdx
	movq	%rdx, 56(%rax)
	movq	%rcx, 32(%rbx)
	movl	$64, %edi
	callq	_malloc
	movq	24(%rsp), %rcx
	movq	(%rcx), %rcx
	movq	%rcx, (%rax)
	movq	24(%rsp), %rcx
	movq	8(%rcx), %rcx
	movq	%rcx, 8(%rax)
	movq	8(%rsp), %rcx
	movq	(%rcx), %rcx
	movq	%rcx, 16(%rax)
	movq	8(%rsp), %rcx
	movq	8(%rcx), %rcx
	movq	%rcx, 24(%rax)
	movq	8(%rsp), %rcx
	movq	16(%rcx), %rcx
	movq	%rcx, 32(%rax)
	movq	8(%rsp), %rcx
	movq	24(%rcx), %rcx
	movq	%rcx, 40(%rax)
	movq	8(%rsp), %rdx
	movq	32(%rdx), %rdx
	movq	%rdx, 48(%rax)
	movq	8(%rsp), %rdx
	movq	40(%rdx), %rdx
	movq	%rdx, 56(%rax)
	movq	%rcx, 40(%rbx)
	movl	$64, %edi
	callq	_malloc
	movq	24(%rsp), %rcx
	movq	(%rcx), %rcx
	movq	%rcx, (%rax)
	movq	24(%rsp), %rcx
	movq	8(%rcx), %rcx
	movq	%rcx, 8(%rax)
	movq	8(%rsp), %rcx
	movq	(%rcx), %rcx
	movq	%rcx, 16(%rax)
	movq	8(%rsp), %rcx
	movq	8(%rcx), %rcx
	movq	%rcx, 24(%rax)
	movq	8(%rsp), %rcx
	movq	16(%rcx), %rcx
	movq	%rcx, 32(%rax)
	movq	8(%rsp), %rcx
	movq	24(%rcx), %rcx
	movq	%rcx, 40(%rax)
	movq	8(%rsp), %rcx
	movq	32(%rcx), %rcx
	movq	%rcx, 48(%rax)
	movq	8(%rsp), %rdx
	movq	40(%rdx), %rdx
	movq	%rdx, 56(%rax)
	movq	%rcx, 48(%rbx)
	movl	$64, %edi
	callq	_malloc
	movq	24(%rsp), %rcx
	movq	(%rcx), %rcx
	movq	%rcx, (%rax)
	movq	24(%rsp), %rcx
	movq	8(%rcx), %rcx
	movq	%rcx, 8(%rax)
	movq	8(%rsp), %rcx
	movq	(%rcx), %rcx
	movq	%rcx, 16(%rax)
	movq	8(%rsp), %rcx
	movq	8(%rcx), %rcx
	movq	%rcx, 24(%rax)
	movq	8(%rsp), %rcx
	movq	16(%rcx), %rcx
	movq	%rcx, 32(%rax)
	movq	8(%rsp), %rcx
	movq	24(%rcx), %rcx
	movq	%rcx, 40(%rax)
	movq	8(%rsp), %rcx
	movq	32(%rcx), %rcx
	movq	%rcx, 48(%rax)
	movq	8(%rsp), %rcx
	movq	40(%rcx), %rcx
	movq	%rcx, 56(%rax)
	movq	%rcx, 56(%rbx)
	movq	40(%rsp), %rax
	movq	(%rax), %rax
	movq	%rax, 64(%rbx)
	movq	40(%rsp), %rax
	movq	8(%rax), %rax
	movq	%rax, 72(%rbx)
	movq	40(%rsp), %rax
	movq	16(%rax), %rax
	movq	%rax, 80(%rbx)
	movq	40(%rsp), %rax
	movq	24(%rax), %rax
	movq	%rax, 88(%rbx)
	movq	40(%rsp), %rax
	movq	32(%rax), %rax
	movq	%rax, 96(%rbx)
	movq	16(%rbx), %rax
	movq	%rax, 16(%r15)
	movl	$104, %edi
	callq	_malloc
	movq	%rax, %rbx
	movl	$64, %edi
	callq	_malloc
	movq	24(%rsp), %rcx
	movq	(%rcx), %rcx
	movq	%rcx, (%rax)
	movq	24(%rsp), %rcx
	movq	8(%rcx), %rcx
	movq	%rcx, 8(%rax)
	movq	8(%rsp), %rcx
	movq	(%rcx), %rcx
	movq	%rcx, 16(%rax)
	movq	8(%rsp), %rcx
	movq	8(%rcx), %rcx
	movq	%rcx, 24(%rax)
	movq	8(%rsp), %rcx
	movq	16(%rcx), %rcx
	movq	%rcx, 32(%rax)
	movq	8(%rsp), %rcx
	movq	24(%rcx), %rcx
	movq	%rcx, 40(%rax)
	movq	8(%rsp), %rcx
	movq	32(%rcx), %rcx
	movq	%rcx, 48(%rax)
	movq	8(%rsp), %rcx
	movq	40(%rcx), %rcx
	movq	%rcx, 56(%rax)
	movq	(%rax), %rax
	movq	%rax, (%rbx)
	movl	$64, %edi
	callq	_malloc
	movq	24(%rsp), %rcx
	movq	(%rcx), %rcx
	movq	%rcx, (%rax)
	movq	24(%rsp), %rcx
	movq	8(%rcx), %rcx
	movq	%rcx, 8(%rax)
	movq	8(%rsp), %rcx
	movq	(%rcx), %rcx
	movq	%rcx, 16(%rax)
	movq	8(%rsp), %rcx
	movq	8(%rcx), %rcx
	movq	%rcx, 24(%rax)
	movq	8(%rsp), %rcx
	movq	16(%rcx), %rcx
	movq	%rcx, 32(%rax)
	movq	8(%rsp), %rcx
	movq	24(%rcx), %rcx
	movq	%rcx, 40(%rax)
	movq	8(%rsp), %rcx
	movq	32(%rcx), %rcx
	movq	%rcx, 48(%rax)
	movq	8(%rsp), %rcx
	movq	40(%rcx), %rcx
	movq	%rcx, 56(%rax)
	movq	8(%rax), %rax
	movq	%rax, 8(%rbx)
	movl	$64, %edi
	callq	_malloc
	movq	24(%rsp), %rcx
	movq	(%rcx), %rcx
	movq	%rcx, (%rax)
	movq	24(%rsp), %rcx
	movq	8(%rcx), %rcx
	movq	%rcx, 8(%rax)
	movq	8(%rsp), %rcx
	movq	(%rcx), %rcx
	movq	%rcx, 16(%rax)
	movq	8(%rsp), %rcx
	movq	8(%rcx), %rcx
	movq	%rcx, 24(%rax)
	movq	8(%rsp), %rcx
	movq	16(%rcx), %rcx
	movq	%rcx, 32(%rax)
	movq	8(%rsp), %rcx
	movq	24(%rcx), %rcx
	movq	%rcx, 40(%rax)
	movq	8(%rsp), %rcx
	movq	32(%rcx), %rcx
	movq	%rcx, 48(%rax)
	movq	8(%rsp), %rcx
	movq	40(%rcx), %rcx
	movq	%rcx, 56(%rax)
	movq	16(%rax), %rax
	movq	%rax, 16(%rbx)
	movl	$64, %edi
	callq	_malloc
	movq	24(%rsp), %rcx
	movq	(%rcx), %rcx
	movq	%rcx, (%rax)
	movq	24(%rsp), %rcx
	movq	8(%rcx), %rcx
	movq	%rcx, 8(%rax)
	movq	8(%rsp), %rcx
	movq	(%rcx), %rcx
	movq	%rcx, 16(%rax)
	movq	8(%rsp), %rcx
	movq	8(%rcx), %rcx
	movq	%rcx, 24(%rax)
	movq	8(%rsp), %rdx
	movq	16(%rdx), %rdx
	movq	%rdx, 32(%rax)
	movq	8(%rsp), %rdx
	movq	24(%rdx), %rdx
	movq	%rdx, 40(%rax)
	movq	8(%rsp), %rdx
	movq	32(%rdx), %rdx
	movq	%rdx, 48(%rax)
	movq	8(%rsp), %rdx
	movq	40(%rdx), %rdx
	movq	%rdx, 56(%rax)
	movq	%rcx, 24(%rbx)
	movl	$64, %edi
	callq	_malloc
	movq	24(%rsp), %rcx
	movq	(%rcx), %rcx
	movq	%rcx, (%rax)
	movq	24(%rsp), %rcx
	movq	8(%rcx), %rcx
	movq	%rcx, 8(%rax)
	movq	8(%rsp), %rcx
	movq	(%rcx), %rcx
	movq	%rcx, 16(%rax)
	movq	8(%rsp), %rcx
	movq	8(%rcx), %rcx
	movq	%rcx, 24(%rax)
	movq	8(%rsp), %rcx
	movq	16(%rcx), %rcx
	movq	%rcx, 32(%rax)
	movq	8(%rsp), %rdx
	movq	24(%rdx), %rdx
	movq	%rdx, 40(%rax)
	movq	8(%rsp), %rdx
	movq	32(%rdx), %rdx
	movq	%rdx, 48(%rax)
	movq	8(%rsp), %rdx
	movq	40(%rdx), %rdx
	movq	%rdx, 56(%rax)
	movq	%rcx, 32(%rbx)
	movl	$64, %edi
	callq	_malloc
	movq	24(%rsp), %rcx
	movq	(%rcx), %rcx
	movq	%rcx, (%rax)
	movq	24(%rsp), %rcx
	movq	8(%rcx), %rcx
	movq	%rcx, 8(%rax)
	movq	8(%rsp), %rcx
	movq	(%rcx), %rcx
	movq	%rcx, 16(%rax)
	movq	8(%rsp), %rcx
	movq	8(%rcx), %rcx
	movq	%rcx, 24(%rax)
	movq	8(%rsp), %rcx
	movq	16(%rcx), %rcx
	movq	%rcx, 32(%rax)
	movq	8(%rsp), %rcx
	movq	24(%rcx), %rcx
	movq	%rcx, 40(%rax)
	movq	8(%rsp), %rdx
	movq	32(%rdx), %rdx
	movq	%rdx, 48(%rax)
	movq	8(%rsp), %rdx
	movq	40(%rdx), %rdx
	movq	%rdx, 56(%rax)
	movq	%rcx, 40(%rbx)
	movl	$64, %edi
	callq	_malloc
	movq	24(%rsp), %rcx
	movq	(%rcx), %rcx
	movq	%rcx, (%rax)
	movq	24(%rsp), %rcx
	movq	8(%rcx), %rcx
	movq	%rcx, 8(%rax)
	movq	8(%rsp), %rcx
	movq	(%rcx), %rcx
	movq	%rcx, 16(%rax)
	movq	8(%rsp), %rcx
	movq	8(%rcx), %rcx
	movq	%rcx, 24(%rax)
	movq	8(%rsp), %rcx
	movq	16(%rcx), %rcx
	movq	%rcx, 32(%rax)
	movq	8(%rsp), %rcx
	movq	24(%rcx), %rcx
	movq	%rcx, 40(%rax)
	movq	8(%rsp), %rcx
	movq	32(%rcx), %rcx
	movq	%rcx, 48(%rax)
	movq	8(%rsp), %rdx
	movq	40(%rdx), %rdx
	movq	%rdx, 56(%rax)
	movq	%rcx, 48(%rbx)
	movl	$64, %edi
	callq	_malloc
	movq	24(%rsp), %rcx
	movq	(%rcx), %rcx
	movq	%rcx, (%rax)
	movq	24(%rsp), %rcx
	movq	8(%rcx), %rcx
	movq	%rcx, 8(%rax)
	movq	8(%rsp), %rcx
	movq	(%rcx), %rcx
	movq	%rcx, 16(%rax)
	movq	8(%rsp), %rcx
	movq	8(%rcx), %rcx
	movq	%rcx, 24(%rax)
	movq	8(%rsp), %rcx
	movq	16(%rcx), %rcx
	movq	%rcx, 32(%rax)
	movq	8(%rsp), %rcx
	movq	24(%rcx), %rcx
	movq	%rcx, 40(%rax)
	movq	8(%rsp), %rcx
	movq	32(%rcx), %rcx
	movq	%rcx, 48(%rax)
	movq	8(%rsp), %rcx
	movq	40(%rcx), %rcx
	movq	%rcx, 56(%rax)
	movq	%rcx, 56(%rbx)
	movq	40(%rsp), %rax
	movq	(%rax), %rax
	movq	%rax, 64(%rbx)
	movq	40(%rsp), %rax
	movq	8(%rax), %rax
	movq	%rax, 72(%rbx)
	movq	40(%rsp), %rax
	movq	16(%rax), %rax
	movq	%rax, 80(%rbx)
	movq	40(%rsp), %rax
	movq	24(%rax), %rax
	movq	%rax, 88(%rbx)
	movq	40(%rsp), %rax
	movq	32(%rax), %rax
	movq	%rax, 96(%rbx)
	movq	24(%rbx), %rax
	movq	%rax, 24(%r15)
	movl	$104, %edi
	callq	_malloc
	movq	%rax, %rbx
	movl	$64, %edi
	callq	_malloc
	movq	24(%rsp), %rcx
	movq	(%rcx), %rcx
	movq	%rcx, (%rax)
	movq	24(%rsp), %rcx
	movq	8(%rcx), %rcx
	movq	%rcx, 8(%rax)
	movq	8(%rsp), %rcx
	movq	(%rcx), %rcx
	movq	%rcx, 16(%rax)
	movq	8(%rsp), %rcx
	movq	8(%rcx), %rcx
	movq	%rcx, 24(%rax)
	movq	8(%rsp), %rcx
	movq	16(%rcx), %rcx
	movq	%rcx, 32(%rax)
	movq	8(%rsp), %rcx
	movq	24(%rcx), %rcx
	movq	%rcx, 40(%rax)
	movq	8(%rsp), %rcx
	movq	32(%rcx), %rcx
	movq	%rcx, 48(%rax)
	movq	8(%rsp), %rcx
	movq	40(%rcx), %rcx
	movq	%rcx, 56(%rax)
	movq	(%rax), %rax
	movq	%rax, (%rbx)
	movl	$64, %edi
	callq	_malloc
	movq	24(%rsp), %rcx
	movq	(%rcx), %rcx
	movq	%rcx, (%rax)
	movq	24(%rsp), %rcx
	movq	8(%rcx), %rcx
	movq	%rcx, 8(%rax)
	movq	8(%rsp), %rcx
	movq	(%rcx), %rcx
	movq	%rcx, 16(%rax)
	movq	8(%rsp), %rcx
	movq	8(%rcx), %rcx
	movq	%rcx, 24(%rax)
	movq	8(%rsp), %rcx
	movq	16(%rcx), %rcx
	movq	%rcx, 32(%rax)
	movq	8(%rsp), %rcx
	movq	24(%rcx), %rcx
	movq	%rcx, 40(%rax)
	movq	8(%rsp), %rcx
	movq	32(%rcx), %rcx
	movq	%rcx, 48(%rax)
	movq	8(%rsp), %rcx
	movq	40(%rcx), %rcx
	movq	%rcx, 56(%rax)
	movq	8(%rax), %rax
	movq	%rax, 8(%rbx)
	movl	$64, %edi
	callq	_malloc
	movq	24(%rsp), %rcx
	movq	(%rcx), %rcx
	movq	%rcx, (%rax)
	movq	24(%rsp), %rcx
	movq	8(%rcx), %rcx
	movq	%rcx, 8(%rax)
	movq	8(%rsp), %rcx
	movq	(%rcx), %rcx
	movq	%rcx, 16(%rax)
	movq	8(%rsp), %rcx
	movq	8(%rcx), %rcx
	movq	%rcx, 24(%rax)
	movq	8(%rsp), %rcx
	movq	16(%rcx), %rcx
	movq	%rcx, 32(%rax)
	movq	8(%rsp), %rcx
	movq	24(%rcx), %rcx
	movq	%rcx, 40(%rax)
	movq	8(%rsp), %rcx
	movq	32(%rcx), %rcx
	movq	%rcx, 48(%rax)
	movq	8(%rsp), %rcx
	movq	40(%rcx), %rcx
	movq	%rcx, 56(%rax)
	movq	16(%rax), %rax
	movq	%rax, 16(%rbx)
	movl	$64, %edi
	callq	_malloc
	movq	24(%rsp), %rcx
	movq	(%rcx), %rcx
	movq	%rcx, (%rax)
	movq	24(%rsp), %rcx
	movq	8(%rcx), %rcx
	movq	%rcx, 8(%rax)
	movq	8(%rsp), %rcx
	movq	(%rcx), %rcx
	movq	%rcx, 16(%rax)
	movq	8(%rsp), %rcx
	movq	8(%rcx), %rcx
	movq	%rcx, 24(%rax)
	movq	8(%rsp), %rdx
	movq	16(%rdx), %rdx
	movq	%rdx, 32(%rax)
	movq	8(%rsp), %rdx
	movq	24(%rdx), %rdx
	movq	%rdx, 40(%rax)
	movq	8(%rsp), %rdx
	movq	32(%rdx), %rdx
	movq	%rdx, 48(%rax)
	movq	8(%rsp), %rdx
	movq	40(%rdx), %rdx
	movq	%rdx, 56(%rax)
	movq	%rcx, 24(%rbx)
	movl	$64, %edi
	callq	_malloc
	movq	24(%rsp), %rcx
	movq	(%rcx), %rcx
	movq	%rcx, (%rax)
	movq	24(%rsp), %rcx
	movq	8(%rcx), %rcx
	movq	%rcx, 8(%rax)
	movq	8(%rsp), %rcx
	movq	(%rcx), %rcx
	movq	%rcx, 16(%rax)
	movq	8(%rsp), %rcx
	movq	8(%rcx), %rcx
	movq	%rcx, 24(%rax)
	movq	8(%rsp), %rcx
	movq	16(%rcx), %rcx
	movq	%rcx, 32(%rax)
	movq	8(%rsp), %rdx
	movq	24(%rdx), %rdx
	movq	%rdx, 40(%rax)
	movq	8(%rsp), %rdx
	movq	32(%rdx), %rdx
	movq	%rdx, 48(%rax)
	movq	8(%rsp), %rdx
	movq	40(%rdx), %rdx
	movq	%rdx, 56(%rax)
	movq	%rcx, 32(%rbx)
	movl	$64, %edi
	callq	_malloc
	movq	24(%rsp), %rcx
	movq	(%rcx), %rcx
	movq	%rcx, (%rax)
	movq	24(%rsp), %rcx
	movq	8(%rcx), %rcx
	movq	%rcx, 8(%rax)
	movq	8(%rsp), %rcx
	movq	(%rcx), %rcx
	movq	%rcx, 16(%rax)
	movq	8(%rsp), %rcx
	movq	8(%rcx), %rcx
	movq	%rcx, 24(%rax)
	movq	8(%rsp), %rcx
	movq	16(%rcx), %rcx
	movq	%rcx, 32(%rax)
	movq	8(%rsp), %rcx
	movq	24(%rcx), %rcx
	movq	%rcx, 40(%rax)
	movq	8(%rsp), %rdx
	movq	32(%rdx), %rdx
	movq	%rdx, 48(%rax)
	movq	8(%rsp), %rdx
	movq	40(%rdx), %rdx
	movq	%rdx, 56(%rax)
	movq	%rcx, 40(%rbx)
	movl	$64, %edi
	callq	_malloc
	movq	24(%rsp), %rcx
	movq	(%rcx), %rcx
	movq	%rcx, (%rax)
	movq	24(%rsp), %rcx
	movq	8(%rcx), %rcx
	movq	%rcx, 8(%rax)
	movq	8(%rsp), %rcx
	movq	(%rcx), %rcx
	movq	%rcx, 16(%rax)
	movq	8(%rsp), %rcx
	movq	8(%rcx), %rcx
	movq	%rcx, 24(%rax)
	movq	8(%rsp), %rcx
	movq	16(%rcx), %rcx
	movq	%rcx, 32(%rax)
	movq	8(%rsp), %rcx
	movq	24(%rcx), %rcx
	movq	%rcx, 40(%rax)
	movq	8(%rsp), %rcx
	movq	32(%rcx), %rcx
	movq	%rcx, 48(%rax)
	movq	8(%rsp), %rdx
	movq	40(%rdx), %rdx
	movq	%rdx, 56(%rax)
	movq	%rcx, 48(%rbx)
	movl	$64, %edi
	callq	_malloc
	movq	24(%rsp), %rcx
	movq	(%rcx), %rcx
	movq	%rcx, (%rax)
	movq	24(%rsp), %rcx
	movq	8(%rcx), %rcx
	movq	%rcx, 8(%rax)
	movq	8(%rsp), %rcx
	movq	(%rcx), %rcx
	movq	%rcx, 16(%rax)
	movq	8(%rsp), %rcx
	movq	8(%rcx), %rcx
	movq	%rcx, 24(%rax)
	movq	8(%rsp), %rcx
	movq	16(%rcx), %rcx
	movq	%rcx, 32(%rax)
	movq	8(%rsp), %rcx
	movq	24(%rcx), %rcx
	movq	%rcx, 40(%rax)
	movq	8(%rsp), %rcx
	movq	32(%rcx), %rcx
	movq	%rcx, 48(%rax)
	movq	8(%rsp), %rcx
	movq	40(%rcx), %rcx
	movq	%rcx, 56(%rax)
	movq	%rcx, 56(%rbx)
	movq	40(%rsp), %rax
	movq	(%rax), %rax
	movq	%rax, 64(%rbx)
	movq	40(%rsp), %rax
	movq	8(%rax), %rax
	movq	%rax, 72(%rbx)
	movq	40(%rsp), %rax
	movq	16(%rax), %rax
	movq	%rax, 80(%rbx)
	movq	40(%rsp), %rax
	movq	24(%rax), %rax
	movq	%rax, 88(%rbx)
	movq	40(%rsp), %rax
	movq	32(%rax), %rax
	movq	%rax, 96(%rbx)
	movq	32(%rbx), %rax
	movq	%rax, 32(%r15)
	movl	$104, %edi
	callq	_malloc
	movq	%rax, %rbx
	movl	$64, %edi
	callq	_malloc
	movq	24(%rsp), %rcx
	movq	(%rcx), %rcx
	movq	%rcx, (%rax)
	movq	24(%rsp), %rcx
	movq	8(%rcx), %rcx
	movq	%rcx, 8(%rax)
	movq	8(%rsp), %rcx
	movq	(%rcx), %rcx
	movq	%rcx, 16(%rax)
	movq	8(%rsp), %rcx
	movq	8(%rcx), %rcx
	movq	%rcx, 24(%rax)
	movq	8(%rsp), %rcx
	movq	16(%rcx), %rcx
	movq	%rcx, 32(%rax)
	movq	8(%rsp), %rcx
	movq	24(%rcx), %rcx
	movq	%rcx, 40(%rax)
	movq	8(%rsp), %rcx
	movq	32(%rcx), %rcx
	movq	%rcx, 48(%rax)
	movq	8(%rsp), %rcx
	movq	40(%rcx), %rcx
	movq	%rcx, 56(%rax)
	movq	(%rax), %rax
	movq	%rax, (%rbx)
	movl	$64, %edi
	callq	_malloc
	movq	24(%rsp), %rcx
	movq	(%rcx), %rcx
	movq	%rcx, (%rax)
	movq	24(%rsp), %rcx
	movq	8(%rcx), %rcx
	movq	%rcx, 8(%rax)
	movq	8(%rsp), %rcx
	movq	(%rcx), %rcx
	movq	%rcx, 16(%rax)
	movq	8(%rsp), %rcx
	movq	8(%rcx), %rcx
	movq	%rcx, 24(%rax)
	movq	8(%rsp), %rcx
	movq	16(%rcx), %rcx
	movq	%rcx, 32(%rax)
	movq	8(%rsp), %rcx
	movq	24(%rcx), %rcx
	movq	%rcx, 40(%rax)
	movq	8(%rsp), %rcx
	movq	32(%rcx), %rcx
	movq	%rcx, 48(%rax)
	movq	8(%rsp), %rcx
	movq	40(%rcx), %rcx
	movq	%rcx, 56(%rax)
	movq	8(%rax), %rax
	movq	%rax, 8(%rbx)
	movl	$64, %edi
	callq	_malloc
	movq	24(%rsp), %rcx
	movq	(%rcx), %rcx
	movq	%rcx, (%rax)
	movq	24(%rsp), %rcx
	movq	8(%rcx), %rcx
	movq	%rcx, 8(%rax)
	movq	8(%rsp), %rcx
	movq	(%rcx), %rcx
	movq	%rcx, 16(%rax)
	movq	8(%rsp), %rcx
	movq	8(%rcx), %rcx
	movq	%rcx, 24(%rax)
	movq	8(%rsp), %rcx
	movq	16(%rcx), %rcx
	movq	%rcx, 32(%rax)
	movq	8(%rsp), %rcx
	movq	24(%rcx), %rcx
	movq	%rcx, 40(%rax)
	movq	8(%rsp), %rcx
	movq	32(%rcx), %rcx
	movq	%rcx, 48(%rax)
	movq	8(%rsp), %rcx
	movq	40(%rcx), %rcx
	movq	%rcx, 56(%rax)
	movq	16(%rax), %rax
	movq	%rax, 16(%rbx)
	movl	$64, %edi
	callq	_malloc
	movq	24(%rsp), %rcx
	movq	(%rcx), %rcx
	movq	%rcx, (%rax)
	movq	24(%rsp), %rcx
	movq	8(%rcx), %rcx
	movq	%rcx, 8(%rax)
	movq	8(%rsp), %rcx
	movq	(%rcx), %rcx
	movq	%rcx, 16(%rax)
	movq	8(%rsp), %rcx
	movq	8(%rcx), %rcx
	movq	%rcx, 24(%rax)
	movq	8(%rsp), %rdx
	movq	16(%rdx), %rdx
	movq	%rdx, 32(%rax)
	movq	8(%rsp), %rdx
	movq	24(%rdx), %rdx
	movq	%rdx, 40(%rax)
	movq	8(%rsp), %rdx
	movq	32(%rdx), %rdx
	movq	%rdx, 48(%rax)
	movq	8(%rsp), %rdx
	movq	40(%rdx), %rdx
	movq	%rdx, 56(%rax)
	movq	%rcx, 24(%rbx)
	movl	$64, %edi
	callq	_malloc
	movq	24(%rsp), %rcx
	movq	(%rcx), %rcx
	movq	%rcx, (%rax)
	movq	24(%rsp), %rcx
	movq	8(%rcx), %rcx
	movq	%rcx, 8(%rax)
	movq	8(%rsp), %rcx
	movq	(%rcx), %rcx
	movq	%rcx, 16(%rax)
	movq	8(%rsp), %rcx
	movq	8(%rcx), %rcx
	movq	%rcx, 24(%rax)
	movq	8(%rsp), %rcx
	movq	16(%rcx), %rcx
	movq	%rcx, 32(%rax)
	movq	8(%rsp), %rdx
	movq	24(%rdx), %rdx
	movq	%rdx, 40(%rax)
	movq	8(%rsp), %rdx
	movq	32(%rdx), %rdx
	movq	%rdx, 48(%rax)
	movq	8(%rsp), %rdx
	movq	40(%rdx), %rdx
	movq	%rdx, 56(%rax)
	movq	%rcx, 32(%rbx)
	movl	$64, %edi
	callq	_malloc
	movq	24(%rsp), %rcx
	movq	(%rcx), %rcx
	movq	%rcx, (%rax)
	movq	24(%rsp), %rcx
	movq	8(%rcx), %rcx
	movq	%rcx, 8(%rax)
	movq	8(%rsp), %rcx
	movq	(%rcx), %rcx
	movq	%rcx, 16(%rax)
	movq	8(%rsp), %rcx
	movq	8(%rcx), %rcx
	movq	%rcx, 24(%rax)
	movq	8(%rsp), %rcx
	movq	16(%rcx), %rcx
	movq	%rcx, 32(%rax)
	movq	8(%rsp), %rcx
	movq	24(%rcx), %rcx
	movq	%rcx, 40(%rax)
	movq	8(%rsp), %rdx
	movq	32(%rdx), %rdx
	movq	%rdx, 48(%rax)
	movq	8(%rsp), %rdx
	movq	40(%rdx), %rdx
	movq	%rdx, 56(%rax)
	movq	%rcx, 40(%rbx)
	movl	$64, %edi
	callq	_malloc
	movq	24(%rsp), %rcx
	movq	(%rcx), %rcx
	movq	%rcx, (%rax)
	movq	24(%rsp), %rcx
	movq	8(%rcx), %rcx
	movq	%rcx, 8(%rax)
	movq	8(%rsp), %rcx
	movq	(%rcx), %rcx
	movq	%rcx, 16(%rax)
	movq	8(%rsp), %rcx
	movq	8(%rcx), %rcx
	movq	%rcx, 24(%rax)
	movq	8(%rsp), %rcx
	movq	16(%rcx), %rcx
	movq	%rcx, 32(%rax)
	movq	8(%rsp), %rcx
	movq	24(%rcx), %rcx
	movq	%rcx, 40(%rax)
	movq	8(%rsp), %rcx
	movq	32(%rcx), %rcx
	movq	%rcx, 48(%rax)
	movq	8(%rsp), %rdx
	movq	40(%rdx), %rdx
	movq	%rdx, 56(%rax)
	movq	%rcx, 48(%rbx)
	movl	$64, %edi
	callq	_malloc
	movq	24(%rsp), %rcx
	movq	(%rcx), %rcx
	movq	%rcx, (%rax)
	movq	24(%rsp), %rcx
	movq	8(%rcx), %rcx
	movq	%rcx, 8(%rax)
	movq	8(%rsp), %rcx
	movq	(%rcx), %rcx
	movq	%rcx, 16(%rax)
	movq	8(%rsp), %rcx
	movq	8(%rcx), %rcx
	movq	%rcx, 24(%rax)
	movq	8(%rsp), %rcx
	movq	16(%rcx), %rcx
	movq	%rcx, 32(%rax)
	movq	8(%rsp), %rcx
	movq	24(%rcx), %rcx
	movq	%rcx, 40(%rax)
	movq	8(%rsp), %rcx
	movq	32(%rcx), %rcx
	movq	%rcx, 48(%rax)
	movq	8(%rsp), %rcx
	movq	40(%rcx), %rcx
	movq	%rcx, 56(%rax)
	movq	%rcx, 56(%rbx)
	movq	40(%rsp), %rax
	movq	(%rax), %rax
	movq	%rax, 64(%rbx)
	movq	40(%rsp), %rax
	movq	8(%rax), %rax
	movq	%rax, 72(%rbx)
	movq	40(%rsp), %rax
	movq	16(%rax), %rax
	movq	%rax, 80(%rbx)
	movq	40(%rsp), %rax
	movq	24(%rax), %rax
	movq	%rax, 88(%rbx)
	movq	40(%rsp), %rax
	movq	32(%rax), %rax
	movq	%rax, 96(%rbx)
	movq	40(%rbx), %rax
	movq	%rax, 40(%r15)
	movl	$104, %edi
	callq	_malloc
	movq	%rax, %rbx
	movl	$64, %edi
	callq	_malloc
	movq	24(%rsp), %rcx
	movq	(%rcx), %rcx
	movq	%rcx, (%rax)
	movq	24(%rsp), %rcx
	movq	8(%rcx), %rcx
	movq	%rcx, 8(%rax)
	movq	8(%rsp), %rcx
	movq	(%rcx), %rcx
	movq	%rcx, 16(%rax)
	movq	8(%rsp), %rcx
	movq	8(%rcx), %rcx
	movq	%rcx, 24(%rax)
	movq	8(%rsp), %rcx
	movq	16(%rcx), %rcx
	movq	%rcx, 32(%rax)
	movq	8(%rsp), %rcx
	movq	24(%rcx), %rcx
	movq	%rcx, 40(%rax)
	movq	8(%rsp), %rcx
	movq	32(%rcx), %rcx
	movq	%rcx, 48(%rax)
	movq	8(%rsp), %rcx
	movq	40(%rcx), %rcx
	movq	%rcx, 56(%rax)
	movq	(%rax), %rax
	movq	%rax, (%rbx)
	movl	$64, %edi
	callq	_malloc
	movq	24(%rsp), %rcx
	movq	(%rcx), %rcx
	movq	%rcx, (%rax)
	movq	24(%rsp), %rcx
	movq	8(%rcx), %rcx
	movq	%rcx, 8(%rax)
	movq	8(%rsp), %rcx
	movq	(%rcx), %rcx
	movq	%rcx, 16(%rax)
	movq	8(%rsp), %rcx
	movq	8(%rcx), %rcx
	movq	%rcx, 24(%rax)
	movq	8(%rsp), %rcx
	movq	16(%rcx), %rcx
	movq	%rcx, 32(%rax)
	movq	8(%rsp), %rcx
	movq	24(%rcx), %rcx
	movq	%rcx, 40(%rax)
	movq	8(%rsp), %rcx
	movq	32(%rcx), %rcx
	movq	%rcx, 48(%rax)
	movq	8(%rsp), %rcx
	movq	40(%rcx), %rcx
	movq	%rcx, 56(%rax)
	movq	8(%rax), %rax
	movq	%rax, 8(%rbx)
	movl	$64, %edi
	callq	_malloc
	movq	24(%rsp), %rcx
	movq	(%rcx), %rcx
	movq	%rcx, (%rax)
	movq	24(%rsp), %rcx
	movq	8(%rcx), %rcx
	movq	%rcx, 8(%rax)
	movq	8(%rsp), %rcx
	movq	(%rcx), %rcx
	movq	%rcx, 16(%rax)
	movq	8(%rsp), %rcx
	movq	8(%rcx), %rcx
	movq	%rcx, 24(%rax)
	movq	8(%rsp), %rcx
	movq	16(%rcx), %rcx
	movq	%rcx, 32(%rax)
	movq	8(%rsp), %rcx
	movq	24(%rcx), %rcx
	movq	%rcx, 40(%rax)
	movq	8(%rsp), %rcx
	movq	32(%rcx), %rcx
	movq	%rcx, 48(%rax)
	movq	8(%rsp), %rcx
	movq	40(%rcx), %rcx
	movq	%rcx, 56(%rax)
	movq	16(%rax), %rax
	movq	%rax, 16(%rbx)
	movl	$64, %edi
	callq	_malloc
	movq	24(%rsp), %rcx
	movq	(%rcx), %rcx
	movq	%rcx, (%rax)
	movq	24(%rsp), %rcx
	movq	8(%rcx), %rcx
	movq	%rcx, 8(%rax)
	movq	8(%rsp), %rcx
	movq	(%rcx), %rcx
	movq	%rcx, 16(%rax)
	movq	8(%rsp), %rcx
	movq	8(%rcx), %rcx
	movq	%rcx, 24(%rax)
	movq	8(%rsp), %rdx
	movq	16(%rdx), %rdx
	movq	%rdx, 32(%rax)
	movq	8(%rsp), %rdx
	movq	24(%rdx), %rdx
	movq	%rdx, 40(%rax)
	movq	8(%rsp), %rdx
	movq	32(%rdx), %rdx
	movq	%rdx, 48(%rax)
	movq	8(%rsp), %rdx
	movq	40(%rdx), %rdx
	movq	%rdx, 56(%rax)
	movq	%rcx, 24(%rbx)
	movl	$64, %edi
	callq	_malloc
	movq	24(%rsp), %rcx
	movq	(%rcx), %rcx
	movq	%rcx, (%rax)
	movq	24(%rsp), %rcx
	movq	8(%rcx), %rcx
	movq	%rcx, 8(%rax)
	movq	8(%rsp), %rcx
	movq	(%rcx), %rcx
	movq	%rcx, 16(%rax)
	movq	8(%rsp), %rcx
	movq	8(%rcx), %rcx
	movq	%rcx, 24(%rax)
	movq	8(%rsp), %rcx
	movq	16(%rcx), %rcx
	movq	%rcx, 32(%rax)
	movq	8(%rsp), %rdx
	movq	24(%rdx), %rdx
	movq	%rdx, 40(%rax)
	movq	8(%rsp), %rdx
	movq	32(%rdx), %rdx
	movq	%rdx, 48(%rax)
	movq	8(%rsp), %rdx
	movq	40(%rdx), %rdx
	movq	%rdx, 56(%rax)
	movq	%rcx, 32(%rbx)
	movl	$64, %edi
	callq	_malloc
	movq	24(%rsp), %rcx
	movq	(%rcx), %rcx
	movq	%rcx, (%rax)
	movq	24(%rsp), %rcx
	movq	8(%rcx), %rcx
	movq	%rcx, 8(%rax)
	movq	8(%rsp), %rcx
	movq	(%rcx), %rcx
	movq	%rcx, 16(%rax)
	movq	8(%rsp), %rcx
	movq	8(%rcx), %rcx
	movq	%rcx, 24(%rax)
	movq	8(%rsp), %rcx
	movq	16(%rcx), %rcx
	movq	%rcx, 32(%rax)
	movq	8(%rsp), %rcx
	movq	24(%rcx), %rcx
	movq	%rcx, 40(%rax)
	movq	8(%rsp), %rdx
	movq	32(%rdx), %rdx
	movq	%rdx, 48(%rax)
	movq	8(%rsp), %rdx
	movq	40(%rdx), %rdx
	movq	%rdx, 56(%rax)
	movq	%rcx, 40(%rbx)
	movl	$64, %edi
	callq	_malloc
	movq	24(%rsp), %rcx
	movq	(%rcx), %rcx
	movq	%rcx, (%rax)
	movq	24(%rsp), %rcx
	movq	8(%rcx), %rcx
	movq	%rcx, 8(%rax)
	movq	8(%rsp), %rcx
	movq	(%rcx), %rcx
	movq	%rcx, 16(%rax)
	movq	8(%rsp), %rcx
	movq	8(%rcx), %rcx
	movq	%rcx, 24(%rax)
	movq	8(%rsp), %rcx
	movq	16(%rcx), %rcx
	movq	%rcx, 32(%rax)
	movq	8(%rsp), %rcx
	movq	24(%rcx), %rcx
	movq	%rcx, 40(%rax)
	movq	8(%rsp), %rcx
	movq	32(%rcx), %rcx
	movq	%rcx, 48(%rax)
	movq	8(%rsp), %rdx
	movq	40(%rdx), %rdx
	movq	%rdx, 56(%rax)
	movq	%rcx, 48(%rbx)
	movl	$64, %edi
	callq	_malloc
	movq	24(%rsp), %rcx
	movq	(%rcx), %rcx
	movq	%rcx, (%rax)
	movq	24(%rsp), %rcx
	movq	8(%rcx), %rcx
	movq	%rcx, 8(%rax)
	movq	8(%rsp), %rcx
	movq	(%rcx), %rcx
	movq	%rcx, 16(%rax)
	movq	8(%rsp), %rcx
	movq	8(%rcx), %rcx
	movq	%rcx, 24(%rax)
	movq	8(%rsp), %rcx
	movq	16(%rcx), %rcx
	movq	%rcx, 32(%rax)
	movq	8(%rsp), %rcx
	movq	24(%rcx), %rcx
	movq	%rcx, 40(%rax)
	movq	8(%rsp), %rcx
	movq	32(%rcx), %rcx
	movq	%rcx, 48(%rax)
	movq	8(%rsp), %rcx
	movq	40(%rcx), %rcx
	movq	%rcx, 56(%rax)
	movq	%rcx, 56(%rbx)
	movq	40(%rsp), %rax
	movq	(%rax), %rax
	movq	%rax, 64(%rbx)
	movq	40(%rsp), %rax
	movq	8(%rax), %rax
	movq	%rax, 72(%rbx)
	movq	40(%rsp), %rax
	movq	16(%rax), %rax
	movq	%rax, 80(%rbx)
	movq	40(%rsp), %rax
	movq	24(%rax), %rax
	movq	%rax, 88(%rbx)
	movq	40(%rsp), %rax
	movq	32(%rax), %rax
	movq	%rax, 96(%rbx)
	movq	48(%rbx), %rax
	movq	%rax, 48(%r15)
	movl	$104, %edi
	callq	_malloc
	movq	%rax, %rbx
	movl	$64, %edi
	callq	_malloc
	movq	24(%rsp), %rcx
	movq	(%rcx), %rcx
	movq	%rcx, (%rax)
	movq	24(%rsp), %rcx
	movq	8(%rcx), %rcx
	movq	%rcx, 8(%rax)
	movq	8(%rsp), %rcx
	movq	(%rcx), %rcx
	movq	%rcx, 16(%rax)
	movq	8(%rsp), %rcx
	movq	8(%rcx), %rcx
	movq	%rcx, 24(%rax)
	movq	8(%rsp), %rcx
	movq	16(%rcx), %rcx
	movq	%rcx, 32(%rax)
	movq	8(%rsp), %rcx
	movq	24(%rcx), %rcx
	movq	%rcx, 40(%rax)
	movq	8(%rsp), %rcx
	movq	32(%rcx), %rcx
	movq	%rcx, 48(%rax)
	movq	8(%rsp), %rcx
	movq	40(%rcx), %rcx
	movq	%rcx, 56(%rax)
	movq	(%rax), %rax
	movq	%rax, (%rbx)
	movl	$64, %edi
	callq	_malloc
	movq	24(%rsp), %rcx
	movq	(%rcx), %rcx
	movq	%rcx, (%rax)
	movq	24(%rsp), %rcx
	movq	8(%rcx), %rcx
	movq	%rcx, 8(%rax)
	movq	8(%rsp), %rcx
	movq	(%rcx), %rcx
	movq	%rcx, 16(%rax)
	movq	8(%rsp), %rcx
	movq	8(%rcx), %rcx
	movq	%rcx, 24(%rax)
	movq	8(%rsp), %rcx
	movq	16(%rcx), %rcx
	movq	%rcx, 32(%rax)
	movq	8(%rsp), %rcx
	movq	24(%rcx), %rcx
	movq	%rcx, 40(%rax)
	movq	8(%rsp), %rcx
	movq	32(%rcx), %rcx
	movq	%rcx, 48(%rax)
	movq	8(%rsp), %rcx
	movq	40(%rcx), %rcx
	movq	%rcx, 56(%rax)
	movq	8(%rax), %rax
	movq	%rax, 8(%rbx)
	movl	$64, %edi
	callq	_malloc
	movq	24(%rsp), %rcx
	movq	(%rcx), %rcx
	movq	%rcx, (%rax)
	movq	24(%rsp), %rcx
	movq	8(%rcx), %rcx
	movq	%rcx, 8(%rax)
	movq	8(%rsp), %rcx
	movq	(%rcx), %rcx
	movq	%rcx, 16(%rax)
	movq	8(%rsp), %rcx
	movq	8(%rcx), %rcx
	movq	%rcx, 24(%rax)
	movq	8(%rsp), %rcx
	movq	16(%rcx), %rcx
	movq	%rcx, 32(%rax)
	movq	8(%rsp), %rcx
	movq	24(%rcx), %rcx
	movq	%rcx, 40(%rax)
	movq	8(%rsp), %rcx
	movq	32(%rcx), %rcx
	movq	%rcx, 48(%rax)
	movq	8(%rsp), %rcx
	movq	40(%rcx), %rcx
	movq	%rcx, 56(%rax)
	movq	16(%rax), %rax
	movq	%rax, 16(%rbx)
	movl	$64, %edi
	callq	_malloc
	movq	24(%rsp), %rcx
	movq	(%rcx), %rcx
	movq	%rcx, (%rax)
	movq	24(%rsp), %rcx
	movq	8(%rcx), %rcx
	movq	%rcx, 8(%rax)
	movq	8(%rsp), %rcx
	movq	(%rcx), %rcx
	movq	%rcx, 16(%rax)
	movq	8(%rsp), %rcx
	movq	8(%rcx), %rcx
	movq	%rcx, 24(%rax)
	movq	8(%rsp), %rdx
	movq	16(%rdx), %rdx
	movq	%rdx, 32(%rax)
	movq	8(%rsp), %rdx
	movq	24(%rdx), %rdx
	movq	%rdx, 40(%rax)
	movq	8(%rsp), %rdx
	movq	32(%rdx), %rdx
	movq	%rdx, 48(%rax)
	movq	8(%rsp), %rdx
	movq	40(%rdx), %rdx
	movq	%rdx, 56(%rax)
	movq	%rcx, 24(%rbx)
	movl	$64, %edi
	callq	_malloc
	movq	24(%rsp), %rcx
	movq	(%rcx), %rcx
	movq	%rcx, (%rax)
	movq	24(%rsp), %rcx
	movq	8(%rcx), %rcx
	movq	%rcx, 8(%rax)
	movq	8(%rsp), %rcx
	movq	(%rcx), %rcx
	movq	%rcx, 16(%rax)
	movq	8(%rsp), %rcx
	movq	8(%rcx), %rcx
	movq	%rcx, 24(%rax)
	movq	8(%rsp), %rcx
	movq	16(%rcx), %rcx
	movq	%rcx, 32(%rax)
	movq	8(%rsp), %rdx
	movq	24(%rdx), %rdx
	movq	%rdx, 40(%rax)
	movq	8(%rsp), %rdx
	movq	32(%rdx), %rdx
	movq	%rdx, 48(%rax)
	movq	8(%rsp), %rdx
	movq	40(%rdx), %rdx
	movq	%rdx, 56(%rax)
	movq	%rcx, 32(%rbx)
	movl	$64, %edi
	callq	_malloc
	movq	24(%rsp), %rcx
	movq	(%rcx), %rcx
	movq	%rcx, (%rax)
	movq	24(%rsp), %rcx
	movq	8(%rcx), %rcx
	movq	%rcx, 8(%rax)
	movq	8(%rsp), %rcx
	movq	(%rcx), %rcx
	movq	%rcx, 16(%rax)
	movq	8(%rsp), %rcx
	movq	8(%rcx), %rcx
	movq	%rcx, 24(%rax)
	movq	8(%rsp), %rcx
	movq	16(%rcx), %rcx
	movq	%rcx, 32(%rax)
	movq	8(%rsp), %rcx
	movq	24(%rcx), %rcx
	movq	%rcx, 40(%rax)
	movq	8(%rsp), %rdx
	movq	32(%rdx), %rdx
	movq	%rdx, 48(%rax)
	movq	8(%rsp), %rdx
	movq	40(%rdx), %rdx
	movq	%rdx, 56(%rax)
	movq	%rcx, 40(%rbx)
	movl	$64, %edi
	callq	_malloc
	movq	24(%rsp), %rcx
	movq	(%rcx), %rcx
	movq	%rcx, (%rax)
	movq	24(%rsp), %rcx
	movq	8(%rcx), %rcx
	movq	%rcx, 8(%rax)
	movq	8(%rsp), %rcx
	movq	(%rcx), %rcx
	movq	%rcx, 16(%rax)
	movq	8(%rsp), %rcx
	movq	8(%rcx), %rcx
	movq	%rcx, 24(%rax)
	movq	8(%rsp), %rcx
	movq	16(%rcx), %rcx
	movq	%rcx, 32(%rax)
	movq	8(%rsp), %rcx
	movq	24(%rcx), %rcx
	movq	%rcx, 40(%rax)
	movq	8(%rsp), %rcx
	movq	32(%rcx), %rcx
	movq	%rcx, 48(%rax)
	movq	8(%rsp), %rdx
	movq	40(%rdx), %rdx
	movq	%rdx, 56(%rax)
	movq	%rcx, 48(%rbx)
	movl	$64, %edi
	callq	_malloc
	movq	24(%rsp), %rcx
	movq	(%rcx), %rcx
	movq	%rcx, (%rax)
	movq	24(%rsp), %rcx
	movq	8(%rcx), %rcx
	movq	%rcx, 8(%rax)
	movq	8(%rsp), %rcx
	movq	(%rcx), %rcx
	movq	%rcx, 16(%rax)
	movq	8(%rsp), %rcx
	movq	8(%rcx), %rcx
	movq	%rcx, 24(%rax)
	movq	8(%rsp), %rcx
	movq	16(%rcx), %rcx
	movq	%rcx, 32(%rax)
	movq	8(%rsp), %rcx
	movq	24(%rcx), %rcx
	movq	%rcx, 40(%rax)
	movq	8(%rsp), %rcx
	movq	32(%rcx), %rcx
	movq	%rcx, 48(%rax)
	movq	8(%rsp), %rcx
	movq	40(%rcx), %rcx
	movq	%rcx, 56(%rax)
	movq	%rcx, 56(%rbx)
	movq	40(%rsp), %rax
	movq	(%rax), %rax
	movq	%rax, 64(%rbx)
	movq	40(%rsp), %rax
	movq	8(%rax), %rax
	movq	%rax, 72(%rbx)
	movq	40(%rsp), %rax
	movq	16(%rax), %rax
	movq	%rax, 80(%rbx)
	movq	40(%rsp), %rax
	movq	24(%rax), %rax
	movq	%rax, 88(%rbx)
	movq	40(%rsp), %rax
	movq	32(%rax), %rax
	movq	%rax, 96(%rbx)
	movq	56(%rbx), %rax
	movq	%rax, 56(%r15)
	movl	$104, %edi
	callq	_malloc
	movq	%rax, %rbx
	movl	$64, %edi
	callq	_malloc
	movq	24(%rsp), %rcx
	movq	(%rcx), %rcx
	movq	%rcx, (%rax)
	movq	24(%rsp), %rcx
	movq	8(%rcx), %rcx
	movq	%rcx, 8(%rax)
	movq	8(%rsp), %rcx
	movq	(%rcx), %rcx
	movq	%rcx, 16(%rax)
	movq	8(%rsp), %rcx
	movq	8(%rcx), %rcx
	movq	%rcx, 24(%rax)
	movq	8(%rsp), %rcx
	movq	16(%rcx), %rcx
	movq	%rcx, 32(%rax)
	movq	8(%rsp), %rcx
	movq	24(%rcx), %rcx
	movq	%rcx, 40(%rax)
	movq	8(%rsp), %rcx
	movq	32(%rcx), %rcx
	movq	%rcx, 48(%rax)
	movq	8(%rsp), %rcx
	movq	40(%rcx), %rcx
	movq	%rcx, 56(%rax)
	movq	(%rax), %rax
	movq	%rax, (%rbx)
	movl	$64, %edi
	callq	_malloc
	movq	24(%rsp), %rcx
	movq	(%rcx), %rcx
	movq	%rcx, (%rax)
	movq	24(%rsp), %rcx
	movq	8(%rcx), %rcx
	movq	%rcx, 8(%rax)
	movq	8(%rsp), %rcx
	movq	(%rcx), %rcx
	movq	%rcx, 16(%rax)
	movq	8(%rsp), %rcx
	movq	8(%rcx), %rcx
	movq	%rcx, 24(%rax)
	movq	8(%rsp), %rcx
	movq	16(%rcx), %rcx
	movq	%rcx, 32(%rax)
	movq	8(%rsp), %rcx
	movq	24(%rcx), %rcx
	movq	%rcx, 40(%rax)
	movq	8(%rsp), %rcx
	movq	32(%rcx), %rcx
	movq	%rcx, 48(%rax)
	movq	8(%rsp), %rcx
	movq	40(%rcx), %rcx
	movq	%rcx, 56(%rax)
	movq	8(%rax), %rax
	movq	%rax, 8(%rbx)
	movl	$64, %edi
	callq	_malloc
	movq	24(%rsp), %rcx
	movq	(%rcx), %rcx
	movq	%rcx, (%rax)
	movq	24(%rsp), %rcx
	movq	8(%rcx), %rcx
	movq	%rcx, 8(%rax)
	movq	8(%rsp), %rcx
	movq	(%rcx), %rcx
	movq	%rcx, 16(%rax)
	movq	8(%rsp), %rcx
	movq	8(%rcx), %rcx
	movq	%rcx, 24(%rax)
	movq	8(%rsp), %rcx
	movq	16(%rcx), %rcx
	movq	%rcx, 32(%rax)
	movq	8(%rsp), %rcx
	movq	24(%rcx), %rcx
	movq	%rcx, 40(%rax)
	movq	8(%rsp), %rcx
	movq	32(%rcx), %rcx
	movq	%rcx, 48(%rax)
	movq	8(%rsp), %rcx
	movq	40(%rcx), %rcx
	movq	%rcx, 56(%rax)
	movq	16(%rax), %rax
	movq	%rax, 16(%rbx)
	movl	$64, %edi
	callq	_malloc
	movq	24(%rsp), %rcx
	movq	(%rcx), %rcx
	movq	%rcx, (%rax)
	movq	24(%rsp), %rcx
	movq	8(%rcx), %rcx
	movq	%rcx, 8(%rax)
	movq	8(%rsp), %rcx
	movq	(%rcx), %rcx
	movq	%rcx, 16(%rax)
	movq	8(%rsp), %rcx
	movq	8(%rcx), %rcx
	movq	%rcx, 24(%rax)
	movq	8(%rsp), %rdx
	movq	16(%rdx), %rdx
	movq	%rdx, 32(%rax)
	movq	8(%rsp), %rdx
	movq	24(%rdx), %rdx
	movq	%rdx, 40(%rax)
	movq	8(%rsp), %rdx
	movq	32(%rdx), %rdx
	movq	%rdx, 48(%rax)
	movq	8(%rsp), %rdx
	movq	40(%rdx), %rdx
	movq	%rdx, 56(%rax)
	movq	%rcx, 24(%rbx)
	movl	$64, %edi
	callq	_malloc
	movq	24(%rsp), %rcx
	movq	(%rcx), %rcx
	movq	%rcx, (%rax)
	movq	24(%rsp), %rcx
	movq	8(%rcx), %rcx
	movq	%rcx, 8(%rax)
	movq	8(%rsp), %rcx
	movq	(%rcx), %rcx
	movq	%rcx, 16(%rax)
	movq	8(%rsp), %rcx
	movq	8(%rcx), %rcx
	movq	%rcx, 24(%rax)
	movq	8(%rsp), %rcx
	movq	16(%rcx), %rcx
	movq	%rcx, 32(%rax)
	movq	8(%rsp), %rdx
	movq	24(%rdx), %rdx
	movq	%rdx, 40(%rax)
	movq	8(%rsp), %rdx
	movq	32(%rdx), %rdx
	movq	%rdx, 48(%rax)
	movq	8(%rsp), %rdx
	movq	40(%rdx), %rdx
	movq	%rdx, 56(%rax)
	movq	%rcx, 32(%rbx)
	movl	$64, %edi
	callq	_malloc
	movq	24(%rsp), %rcx
	movq	(%rcx), %rcx
	movq	%rcx, (%rax)
	movq	24(%rsp), %rcx
	movq	8(%rcx), %rcx
	movq	%rcx, 8(%rax)
	movq	8(%rsp), %rcx
	movq	(%rcx), %rcx
	movq	%rcx, 16(%rax)
	movq	8(%rsp), %rcx
	movq	8(%rcx), %rcx
	movq	%rcx, 24(%rax)
	movq	8(%rsp), %rcx
	movq	16(%rcx), %rcx
	movq	%rcx, 32(%rax)
	movq	8(%rsp), %rcx
	movq	24(%rcx), %rcx
	movq	%rcx, 40(%rax)
	movq	8(%rsp), %rdx
	movq	32(%rdx), %rdx
	movq	%rdx, 48(%rax)
	movq	8(%rsp), %rdx
	movq	40(%rdx), %rdx
	movq	%rdx, 56(%rax)
	movq	%rcx, 40(%rbx)
	movl	$64, %edi
	callq	_malloc
	movq	24(%rsp), %rcx
	movq	(%rcx), %rcx
	movq	%rcx, (%rax)
	movq	24(%rsp), %rcx
	movq	8(%rcx), %rcx
	movq	%rcx, 8(%rax)
	movq	8(%rsp), %rcx
	movq	(%rcx), %rcx
	movq	%rcx, 16(%rax)
	movq	8(%rsp), %rcx
	movq	8(%rcx), %rcx
	movq	%rcx, 24(%rax)
	movq	8(%rsp), %rcx
	movq	16(%rcx), %rcx
	movq	%rcx, 32(%rax)
	movq	8(%rsp), %rcx
	movq	24(%rcx), %rcx
	movq	%rcx, 40(%rax)
	movq	8(%rsp), %rcx
	movq	32(%rcx), %rcx
	movq	%rcx, 48(%rax)
	movq	8(%rsp), %rdx
	movq	40(%rdx), %rdx
	movq	%rdx, 56(%rax)
	movq	%rcx, 48(%rbx)
	movl	$64, %edi
	callq	_malloc
	movq	24(%rsp), %rcx
	movq	(%rcx), %rcx
	movq	%rcx, (%rax)
	movq	24(%rsp), %rcx
	movq	8(%rcx), %rcx
	movq	%rcx, 8(%rax)
	movq	8(%rsp), %rcx
	movq	(%rcx), %rcx
	movq	%rcx, 16(%rax)
	movq	8(%rsp), %rcx
	movq	8(%rcx), %rcx
	movq	%rcx, 24(%rax)
	movq	8(%rsp), %rcx
	movq	16(%rcx), %rcx
	movq	%rcx, 32(%rax)
	movq	8(%rsp), %rcx
	movq	24(%rcx), %rcx
	movq	%rcx, 40(%rax)
	movq	8(%rsp), %rcx
	movq	32(%rcx), %rcx
	movq	%rcx, 48(%rax)
	movq	8(%rsp), %rcx
	movq	40(%rcx), %rcx
	movq	%rcx, 56(%rax)
	movq	%rcx, 56(%rbx)
	movq	40(%rsp), %rax
	movq	(%rax), %rax
	movq	%rax, 64(%rbx)
	movq	40(%rsp), %rcx
	movq	8(%rcx), %rcx
	movq	%rcx, 72(%rbx)
	movq	40(%rsp), %rcx
	movq	16(%rcx), %rcx
	movq	%rcx, 80(%rbx)
	movq	40(%rsp), %rcx
	movq	24(%rcx), %rcx
	movq	%rcx, 88(%rbx)
	movq	40(%rsp), %rcx
	movq	32(%rcx), %rcx
	movq	%rcx, 96(%rbx)
	movq	%rax, 64(%r15)
	movl	$104, %edi
	callq	_malloc
	movq	%rax, %rbx
	movl	$64, %edi
	callq	_malloc
	movq	24(%rsp), %rcx
	movq	(%rcx), %rcx
	movq	%rcx, (%rax)
	movq	24(%rsp), %rcx
	movq	8(%rcx), %rcx
	movq	%rcx, 8(%rax)
	movq	8(%rsp), %rcx
	movq	(%rcx), %rcx
	movq	%rcx, 16(%rax)
	movq	8(%rsp), %rcx
	movq	8(%rcx), %rcx
	movq	%rcx, 24(%rax)
	movq	8(%rsp), %rcx
	movq	16(%rcx), %rcx
	movq	%rcx, 32(%rax)
	movq	8(%rsp), %rcx
	movq	24(%rcx), %rcx
	movq	%rcx, 40(%rax)
	movq	8(%rsp), %rcx
	movq	32(%rcx), %rcx
	movq	%rcx, 48(%rax)
	movq	8(%rsp), %rcx
	movq	40(%rcx), %rcx
	movq	%rcx, 56(%rax)
	movq	(%rax), %rax
	movq	%rax, (%rbx)
	movl	$64, %edi
	callq	_malloc
	movq	24(%rsp), %rcx
	movq	(%rcx), %rcx
	movq	%rcx, (%rax)
	movq	24(%rsp), %rcx
	movq	8(%rcx), %rcx
	movq	%rcx, 8(%rax)
	movq	8(%rsp), %rcx
	movq	(%rcx), %rcx
	movq	%rcx, 16(%rax)
	movq	8(%rsp), %rcx
	movq	8(%rcx), %rcx
	movq	%rcx, 24(%rax)
	movq	8(%rsp), %rcx
	movq	16(%rcx), %rcx
	movq	%rcx, 32(%rax)
	movq	8(%rsp), %rcx
	movq	24(%rcx), %rcx
	movq	%rcx, 40(%rax)
	movq	8(%rsp), %rcx
	movq	32(%rcx), %rcx
	movq	%rcx, 48(%rax)
	movq	8(%rsp), %rcx
	movq	40(%rcx), %rcx
	movq	%rcx, 56(%rax)
	movq	8(%rax), %rax
	movq	%rax, 8(%rbx)
	movl	$64, %edi
	callq	_malloc
	movq	24(%rsp), %rcx
	movq	(%rcx), %rcx
	movq	%rcx, (%rax)
	movq	24(%rsp), %rcx
	movq	8(%rcx), %rcx
	movq	%rcx, 8(%rax)
	movq	8(%rsp), %rcx
	movq	(%rcx), %rcx
	movq	%rcx, 16(%rax)
	movq	8(%rsp), %rcx
	movq	8(%rcx), %rcx
	movq	%rcx, 24(%rax)
	movq	8(%rsp), %rcx
	movq	16(%rcx), %rcx
	movq	%rcx, 32(%rax)
	movq	8(%rsp), %rcx
	movq	24(%rcx), %rcx
	movq	%rcx, 40(%rax)
	movq	8(%rsp), %rcx
	movq	32(%rcx), %rcx
	movq	%rcx, 48(%rax)
	movq	8(%rsp), %rcx
	movq	40(%rcx), %rcx
	movq	%rcx, 56(%rax)
	movq	16(%rax), %rax
	movq	%rax, 16(%rbx)
	movl	$64, %edi
	callq	_malloc
	movq	24(%rsp), %rcx
	movq	(%rcx), %rcx
	movq	%rcx, (%rax)
	movq	24(%rsp), %rcx
	movq	8(%rcx), %rcx
	movq	%rcx, 8(%rax)
	movq	8(%rsp), %rcx
	movq	(%rcx), %rcx
	movq	%rcx, 16(%rax)
	movq	8(%rsp), %rcx
	movq	8(%rcx), %rcx
	movq	%rcx, 24(%rax)
	movq	8(%rsp), %rdx
	movq	16(%rdx), %rdx
	movq	%rdx, 32(%rax)
	movq	8(%rsp), %rdx
	movq	24(%rdx), %rdx
	movq	%rdx, 40(%rax)
	movq	8(%rsp), %rdx
	movq	32(%rdx), %rdx
	movq	%rdx, 48(%rax)
	movq	8(%rsp), %rdx
	movq	40(%rdx), %rdx
	movq	%rdx, 56(%rax)
	movq	%rcx, 24(%rbx)
	movl	$64, %edi
	callq	_malloc
	movq	24(%rsp), %rcx
	movq	(%rcx), %rcx
	movq	%rcx, (%rax)
	movq	24(%rsp), %rcx
	movq	8(%rcx), %rcx
	movq	%rcx, 8(%rax)
	movq	8(%rsp), %rcx
	movq	(%rcx), %rcx
	movq	%rcx, 16(%rax)
	movq	8(%rsp), %rcx
	movq	8(%rcx), %rcx
	movq	%rcx, 24(%rax)
	movq	8(%rsp), %rcx
	movq	16(%rcx), %rcx
	movq	%rcx, 32(%rax)
	movq	8(%rsp), %rdx
	movq	24(%rdx), %rdx
	movq	%rdx, 40(%rax)
	movq	8(%rsp), %rdx
	movq	32(%rdx), %rdx
	movq	%rdx, 48(%rax)
	movq	8(%rsp), %rdx
	movq	40(%rdx), %rdx
	movq	%rdx, 56(%rax)
	movq	%rcx, 32(%rbx)
	movl	$64, %edi
	callq	_malloc
	movq	24(%rsp), %rcx
	movq	(%rcx), %rcx
	movq	%rcx, (%rax)
	movq	24(%rsp), %rcx
	movq	8(%rcx), %rcx
	movq	%rcx, 8(%rax)
	movq	8(%rsp), %rcx
	movq	(%rcx), %rcx
	movq	%rcx, 16(%rax)
	movq	8(%rsp), %rcx
	movq	8(%rcx), %rcx
	movq	%rcx, 24(%rax)
	movq	8(%rsp), %rcx
	movq	16(%rcx), %rcx
	movq	%rcx, 32(%rax)
	movq	8(%rsp), %rcx
	movq	24(%rcx), %rcx
	movq	%rcx, 40(%rax)
	movq	8(%rsp), %rdx
	movq	32(%rdx), %rdx
	movq	%rdx, 48(%rax)
	movq	8(%rsp), %rdx
	movq	40(%rdx), %rdx
	movq	%rdx, 56(%rax)
	movq	%rcx, 40(%rbx)
	movl	$64, %edi
	callq	_malloc
	movq	24(%rsp), %rcx
	movq	(%rcx), %rcx
	movq	%rcx, (%rax)
	movq	24(%rsp), %rcx
	movq	8(%rcx), %rcx
	movq	%rcx, 8(%rax)
	movq	8(%rsp), %rcx
	movq	(%rcx), %rcx
	movq	%rcx, 16(%rax)
	movq	8(%rsp), %rcx
	movq	8(%rcx), %rcx
	movq	%rcx, 24(%rax)
	movq	8(%rsp), %rcx
	movq	16(%rcx), %rcx
	movq	%rcx, 32(%rax)
	movq	8(%rsp), %rcx
	movq	24(%rcx), %rcx
	movq	%rcx, 40(%rax)
	movq	8(%rsp), %rcx
	movq	32(%rcx), %rcx
	movq	%rcx, 48(%rax)
	movq	8(%rsp), %rdx
	movq	40(%rdx), %rdx
	movq	%rdx, 56(%rax)
	movq	%rcx, 48(%rbx)
	movl	$64, %edi
	callq	_malloc
	movq	24(%rsp), %rcx
	movq	(%rcx), %rcx
	movq	%rcx, (%rax)
	movq	24(%rsp), %rcx
	movq	8(%rcx), %rcx
	movq	%rcx, 8(%rax)
	movq	8(%rsp), %rcx
	movq	(%rcx), %rcx
	movq	%rcx, 16(%rax)
	movq	8(%rsp), %rcx
	movq	8(%rcx), %rcx
	movq	%rcx, 24(%rax)
	movq	8(%rsp), %rcx
	movq	16(%rcx), %rcx
	movq	%rcx, 32(%rax)
	movq	8(%rsp), %rcx
	movq	24(%rcx), %rcx
	movq	%rcx, 40(%rax)
	movq	8(%rsp), %rcx
	movq	32(%rcx), %rcx
	movq	%rcx, 48(%rax)
	movq	8(%rsp), %rcx
	movq	40(%rcx), %rcx
	movq	%rcx, 56(%rax)
	movq	%rcx, 56(%rbx)
	movq	40(%rsp), %rax
	movq	(%rax), %rax
	movq	%rax, 64(%rbx)
	movq	40(%rsp), %rax
	movq	8(%rax), %rax
	movq	%rax, 72(%rbx)
	movq	40(%rsp), %rcx
	movq	16(%rcx), %rcx
	movq	%rcx, 80(%rbx)
	movq	40(%rsp), %rcx
	movq	24(%rcx), %rcx
	movq	%rcx, 88(%rbx)
	movq	40(%rsp), %rcx
	movq	32(%rcx), %rcx
	movq	%rcx, 96(%rbx)
	movq	%rax, 72(%r15)
	movl	$104, %edi
	callq	_malloc
	movq	%rax, %rbx
	movl	$64, %edi
	callq	_malloc
	movq	24(%rsp), %rcx
	movq	(%rcx), %rcx
	movq	%rcx, (%rax)
	movq	24(%rsp), %rcx
	movq	8(%rcx), %rcx
	movq	%rcx, 8(%rax)
	movq	8(%rsp), %rcx
	movq	(%rcx), %rcx
	movq	%rcx, 16(%rax)
	movq	8(%rsp), %rcx
	movq	8(%rcx), %rcx
	movq	%rcx, 24(%rax)
	movq	8(%rsp), %rcx
	movq	16(%rcx), %rcx
	movq	%rcx, 32(%rax)
	movq	8(%rsp), %rcx
	movq	24(%rcx), %rcx
	movq	%rcx, 40(%rax)
	movq	8(%rsp), %rcx
	movq	32(%rcx), %rcx
	movq	%rcx, 48(%rax)
	movq	8(%rsp), %rcx
	movq	40(%rcx), %rcx
	movq	%rcx, 56(%rax)
	movq	(%rax), %rax
	movq	%rax, (%rbx)
	movl	$64, %edi
	callq	_malloc
	movq	24(%rsp), %rcx
	movq	(%rcx), %rcx
	movq	%rcx, (%rax)
	movq	24(%rsp), %rcx
	movq	8(%rcx), %rcx
	movq	%rcx, 8(%rax)
	movq	8(%rsp), %rcx
	movq	(%rcx), %rcx
	movq	%rcx, 16(%rax)
	movq	8(%rsp), %rcx
	movq	8(%rcx), %rcx
	movq	%rcx, 24(%rax)
	movq	8(%rsp), %rcx
	movq	16(%rcx), %rcx
	movq	%rcx, 32(%rax)
	movq	8(%rsp), %rcx
	movq	24(%rcx), %rcx
	movq	%rcx, 40(%rax)
	movq	8(%rsp), %rcx
	movq	32(%rcx), %rcx
	movq	%rcx, 48(%rax)
	movq	8(%rsp), %rcx
	movq	40(%rcx), %rcx
	movq	%rcx, 56(%rax)
	movq	8(%rax), %rax
	movq	%rax, 8(%rbx)
	movl	$64, %edi
	callq	_malloc
	movq	24(%rsp), %rcx
	movq	(%rcx), %rcx
	movq	%rcx, (%rax)
	movq	24(%rsp), %rcx
	movq	8(%rcx), %rcx
	movq	%rcx, 8(%rax)
	movq	8(%rsp), %rcx
	movq	(%rcx), %rcx
	movq	%rcx, 16(%rax)
	movq	8(%rsp), %rcx
	movq	8(%rcx), %rcx
	movq	%rcx, 24(%rax)
	movq	8(%rsp), %rcx
	movq	16(%rcx), %rcx
	movq	%rcx, 32(%rax)
	movq	8(%rsp), %rcx
	movq	24(%rcx), %rcx
	movq	%rcx, 40(%rax)
	movq	8(%rsp), %rcx
	movq	32(%rcx), %rcx
	movq	%rcx, 48(%rax)
	movq	8(%rsp), %rcx
	movq	40(%rcx), %rcx
	movq	%rcx, 56(%rax)
	movq	16(%rax), %rax
	movq	%rax, 16(%rbx)
	movl	$64, %edi
	callq	_malloc
	movq	24(%rsp), %rcx
	movq	(%rcx), %rcx
	movq	%rcx, (%rax)
	movq	24(%rsp), %rcx
	movq	8(%rcx), %rcx
	movq	%rcx, 8(%rax)
	movq	8(%rsp), %rcx
	movq	(%rcx), %rcx
	movq	%rcx, 16(%rax)
	movq	8(%rsp), %rcx
	movq	8(%rcx), %rcx
	movq	%rcx, 24(%rax)
	movq	8(%rsp), %rdx
	movq	16(%rdx), %rdx
	movq	%rdx, 32(%rax)
	movq	8(%rsp), %rdx
	movq	24(%rdx), %rdx
	movq	%rdx, 40(%rax)
	movq	8(%rsp), %rdx
	movq	32(%rdx), %rdx
	movq	%rdx, 48(%rax)
	movq	8(%rsp), %rdx
	movq	40(%rdx), %rdx
	movq	%rdx, 56(%rax)
	movq	%rcx, 24(%rbx)
	movl	$64, %edi
	callq	_malloc
	movq	24(%rsp), %rcx
	movq	(%rcx), %rcx
	movq	%rcx, (%rax)
	movq	24(%rsp), %rcx
	movq	8(%rcx), %rcx
	movq	%rcx, 8(%rax)
	movq	8(%rsp), %rcx
	movq	(%rcx), %rcx
	movq	%rcx, 16(%rax)
	movq	8(%rsp), %rcx
	movq	8(%rcx), %rcx
	movq	%rcx, 24(%rax)
	movq	8(%rsp), %rcx
	movq	16(%rcx), %rcx
	movq	%rcx, 32(%rax)
	movq	8(%rsp), %rdx
	movq	24(%rdx), %rdx
	movq	%rdx, 40(%rax)
	movq	8(%rsp), %rdx
	movq	32(%rdx), %rdx
	movq	%rdx, 48(%rax)
	movq	8(%rsp), %rdx
	movq	40(%rdx), %rdx
	movq	%rdx, 56(%rax)
	movq	%rcx, 32(%rbx)
	movl	$64, %edi
	callq	_malloc
	movq	24(%rsp), %rcx
	movq	(%rcx), %rcx
	movq	%rcx, (%rax)
	movq	24(%rsp), %rcx
	movq	8(%rcx), %rcx
	movq	%rcx, 8(%rax)
	movq	8(%rsp), %rcx
	movq	(%rcx), %rcx
	movq	%rcx, 16(%rax)
	movq	8(%rsp), %rcx
	movq	8(%rcx), %rcx
	movq	%rcx, 24(%rax)
	movq	8(%rsp), %rcx
	movq	16(%rcx), %rcx
	movq	%rcx, 32(%rax)
	movq	8(%rsp), %rcx
	movq	24(%rcx), %rcx
	movq	%rcx, 40(%rax)
	movq	8(%rsp), %rdx
	movq	32(%rdx), %rdx
	movq	%rdx, 48(%rax)
	movq	8(%rsp), %rdx
	movq	40(%rdx), %rdx
	movq	%rdx, 56(%rax)
	movq	%rcx, 40(%rbx)
	movl	$64, %edi
	callq	_malloc
	movq	24(%rsp), %rcx
	movq	(%rcx), %rcx
	movq	%rcx, (%rax)
	movq	24(%rsp), %rcx
	movq	8(%rcx), %rcx
	movq	%rcx, 8(%rax)
	movq	8(%rsp), %rcx
	movq	(%rcx), %rcx
	movq	%rcx, 16(%rax)
	movq	8(%rsp), %rcx
	movq	8(%rcx), %rcx
	movq	%rcx, 24(%rax)
	movq	8(%rsp), %rcx
	movq	16(%rcx), %rcx
	movq	%rcx, 32(%rax)
	movq	8(%rsp), %rcx
	movq	24(%rcx), %rcx
	movq	%rcx, 40(%rax)
	movq	8(%rsp), %rcx
	movq	32(%rcx), %rcx
	movq	%rcx, 48(%rax)
	movq	8(%rsp), %rdx
	movq	40(%rdx), %rdx
	movq	%rdx, 56(%rax)
	movq	%rcx, 48(%rbx)
	movl	$64, %edi
	callq	_malloc
	movq	24(%rsp), %rcx
	movq	(%rcx), %rcx
	movq	%rcx, (%rax)
	movq	24(%rsp), %rcx
	movq	8(%rcx), %rcx
	movq	%rcx, 8(%rax)
	movq	8(%rsp), %rcx
	movq	(%rcx), %rcx
	movq	%rcx, 16(%rax)
	movq	8(%rsp), %rcx
	movq	8(%rcx), %rcx
	movq	%rcx, 24(%rax)
	movq	8(%rsp), %rcx
	movq	16(%rcx), %rcx
	movq	%rcx, 32(%rax)
	movq	8(%rsp), %rcx
	movq	24(%rcx), %rcx
	movq	%rcx, 40(%rax)
	movq	8(%rsp), %rcx
	movq	32(%rcx), %rcx
	movq	%rcx, 48(%rax)
	movq	8(%rsp), %rcx
	movq	40(%rcx), %rcx
	movq	%rcx, 56(%rax)
	movq	%rcx, 56(%rbx)
	movq	40(%rsp), %rax
	movq	(%rax), %rax
	movq	%rax, 64(%rbx)
	movq	40(%rsp), %rax
	movq	8(%rax), %rax
	movq	%rax, 72(%rbx)
	movq	40(%rsp), %rax
	movq	16(%rax), %rax
	movq	%rax, 80(%rbx)
	movq	40(%rsp), %rcx
	movq	24(%rcx), %rcx
	movq	%rcx, 88(%rbx)
	movq	40(%rsp), %rcx
	movq	32(%rcx), %rcx
	movq	%rcx, 96(%rbx)
	movq	%rax, 80(%r15)
	movl	$104, %edi
	callq	_malloc
	movq	%rax, %rbx
	movl	$64, %edi
	callq	_malloc
	movq	24(%rsp), %rcx
	movq	(%rcx), %rcx
	movq	%rcx, (%rax)
	movq	24(%rsp), %rcx
	movq	8(%rcx), %rcx
	movq	%rcx, 8(%rax)
	movq	8(%rsp), %rcx
	movq	(%rcx), %rcx
	movq	%rcx, 16(%rax)
	movq	8(%rsp), %rcx
	movq	8(%rcx), %rcx
	movq	%rcx, 24(%rax)
	movq	8(%rsp), %rcx
	movq	16(%rcx), %rcx
	movq	%rcx, 32(%rax)
	movq	8(%rsp), %rcx
	movq	24(%rcx), %rcx
	movq	%rcx, 40(%rax)
	movq	8(%rsp), %rcx
	movq	32(%rcx), %rcx
	movq	%rcx, 48(%rax)
	movq	8(%rsp), %rcx
	movq	40(%rcx), %rcx
	movq	%rcx, 56(%rax)
	movq	(%rax), %rax
	movq	%rax, (%rbx)
	movl	$64, %edi
	callq	_malloc
	movq	24(%rsp), %rcx
	movq	(%rcx), %rcx
	movq	%rcx, (%rax)
	movq	24(%rsp), %rcx
	movq	8(%rcx), %rcx
	movq	%rcx, 8(%rax)
	movq	8(%rsp), %rcx
	movq	(%rcx), %rcx
	movq	%rcx, 16(%rax)
	movq	8(%rsp), %rcx
	movq	8(%rcx), %rcx
	movq	%rcx, 24(%rax)
	movq	8(%rsp), %rcx
	movq	16(%rcx), %rcx
	movq	%rcx, 32(%rax)
	movq	8(%rsp), %rcx
	movq	24(%rcx), %rcx
	movq	%rcx, 40(%rax)
	movq	8(%rsp), %rcx
	movq	32(%rcx), %rcx
	movq	%rcx, 48(%rax)
	movq	8(%rsp), %rcx
	movq	40(%rcx), %rcx
	movq	%rcx, 56(%rax)
	movq	8(%rax), %rax
	movq	%rax, 8(%rbx)
	movl	$64, %edi
	callq	_malloc
	movq	24(%rsp), %rcx
	movq	(%rcx), %rcx
	movq	%rcx, (%rax)
	movq	24(%rsp), %rcx
	movq	8(%rcx), %rcx
	movq	%rcx, 8(%rax)
	movq	8(%rsp), %rcx
	movq	(%rcx), %rcx
	movq	%rcx, 16(%rax)
	movq	8(%rsp), %rcx
	movq	8(%rcx), %rcx
	movq	%rcx, 24(%rax)
	movq	8(%rsp), %rcx
	movq	16(%rcx), %rcx
	movq	%rcx, 32(%rax)
	movq	8(%rsp), %rcx
	movq	24(%rcx), %rcx
	movq	%rcx, 40(%rax)
	movq	8(%rsp), %rcx
	movq	32(%rcx), %rcx
	movq	%rcx, 48(%rax)
	movq	8(%rsp), %rcx
	movq	40(%rcx), %rcx
	movq	%rcx, 56(%rax)
	movq	16(%rax), %rax
	movq	%rax, 16(%rbx)
	movl	$64, %edi
	callq	_malloc
	movq	24(%rsp), %rcx
	movq	(%rcx), %rcx
	movq	%rcx, (%rax)
	movq	24(%rsp), %rcx
	movq	8(%rcx), %rcx
	movq	%rcx, 8(%rax)
	movq	8(%rsp), %rcx
	movq	(%rcx), %rcx
	movq	%rcx, 16(%rax)
	movq	8(%rsp), %rcx
	movq	8(%rcx), %rcx
	movq	%rcx, 24(%rax)
	movq	8(%rsp), %rdx
	movq	16(%rdx), %rdx
	movq	%rdx, 32(%rax)
	movq	8(%rsp), %rdx
	movq	24(%rdx), %rdx
	movq	%rdx, 40(%rax)
	movq	8(%rsp), %rdx
	movq	32(%rdx), %rdx
	movq	%rdx, 48(%rax)
	movq	8(%rsp), %rdx
	movq	40(%rdx), %rdx
	movq	%rdx, 56(%rax)
	movq	%rcx, 24(%rbx)
	movl	$64, %edi
	callq	_malloc
	movq	24(%rsp), %rcx
	movq	(%rcx), %rcx
	movq	%rcx, (%rax)
	movq	24(%rsp), %rcx
	movq	8(%rcx), %rcx
	movq	%rcx, 8(%rax)
	movq	8(%rsp), %rcx
	movq	(%rcx), %rcx
	movq	%rcx, 16(%rax)
	movq	8(%rsp), %rcx
	movq	8(%rcx), %rcx
	movq	%rcx, 24(%rax)
	movq	8(%rsp), %rcx
	movq	16(%rcx), %rcx
	movq	%rcx, 32(%rax)
	movq	8(%rsp), %rdx
	movq	24(%rdx), %rdx
	movq	%rdx, 40(%rax)
	movq	8(%rsp), %rdx
	movq	32(%rdx), %rdx
	movq	%rdx, 48(%rax)
	movq	8(%rsp), %rdx
	movq	40(%rdx), %rdx
	movq	%rdx, 56(%rax)
	movq	%rcx, 32(%rbx)
	movl	$64, %edi
	callq	_malloc
	movq	24(%rsp), %rcx
	movq	(%rcx), %rcx
	movq	%rcx, (%rax)
	movq	24(%rsp), %rcx
	movq	8(%rcx), %rcx
	movq	%rcx, 8(%rax)
	movq	8(%rsp), %rcx
	movq	(%rcx), %rcx
	movq	%rcx, 16(%rax)
	movq	8(%rsp), %rcx
	movq	8(%rcx), %rcx
	movq	%rcx, 24(%rax)
	movq	8(%rsp), %rcx
	movq	16(%rcx), %rcx
	movq	%rcx, 32(%rax)
	movq	8(%rsp), %rcx
	movq	24(%rcx), %rcx
	movq	%rcx, 40(%rax)
	movq	8(%rsp), %rdx
	movq	32(%rdx), %rdx
	movq	%rdx, 48(%rax)
	movq	8(%rsp), %rdx
	movq	40(%rdx), %rdx
	movq	%rdx, 56(%rax)
	movq	%rcx, 40(%rbx)
	movl	$64, %edi
	callq	_malloc
	movq	24(%rsp), %rcx
	movq	(%rcx), %rcx
	movq	%rcx, (%rax)
	movq	24(%rsp), %rcx
	movq	8(%rcx), %rcx
	movq	%rcx, 8(%rax)
	movq	8(%rsp), %rcx
	movq	(%rcx), %rcx
	movq	%rcx, 16(%rax)
	movq	8(%rsp), %rcx
	movq	8(%rcx), %rcx
	movq	%rcx, 24(%rax)
	movq	8(%rsp), %rcx
	movq	16(%rcx), %rcx
	movq	%rcx, 32(%rax)
	movq	8(%rsp), %rcx
	movq	24(%rcx), %rcx
	movq	%rcx, 40(%rax)
	movq	8(%rsp), %rcx
	movq	32(%rcx), %rcx
	movq	%rcx, 48(%rax)
	movq	8(%rsp), %rdx
	movq	40(%rdx), %rdx
	movq	%rdx, 56(%rax)
	movq	%rcx, 48(%rbx)
	movl	$64, %edi
	callq	_malloc
	movq	24(%rsp), %rcx
	movq	(%rcx), %rcx
	movq	%rcx, (%rax)
	movq	24(%rsp), %rcx
	movq	8(%rcx), %rcx
	movq	%rcx, 8(%rax)
	movq	8(%rsp), %rcx
	movq	(%rcx), %rcx
	movq	%rcx, 16(%rax)
	movq	8(%rsp), %rcx
	movq	8(%rcx), %rcx
	movq	%rcx, 24(%rax)
	movq	8(%rsp), %rcx
	movq	16(%rcx), %rcx
	movq	%rcx, 32(%rax)
	movq	8(%rsp), %rcx
	movq	24(%rcx), %rcx
	movq	%rcx, 40(%rax)
	movq	8(%rsp), %rcx
	movq	32(%rcx), %rcx
	movq	%rcx, 48(%rax)
	movq	8(%rsp), %rcx
	movq	40(%rcx), %rcx
	movq	%rcx, 56(%rax)
	movq	%rcx, 56(%rbx)
	movq	40(%rsp), %rax
	movq	(%rax), %rax
	movq	%rax, 64(%rbx)
	movq	40(%rsp), %rax
	movq	8(%rax), %rax
	movq	%rax, 72(%rbx)
	movq	40(%rsp), %rax
	movq	16(%rax), %rax
	movq	%rax, 80(%rbx)
	movq	40(%rsp), %rax
	movq	24(%rax), %rax
	movq	%rax, 88(%rbx)
	movq	40(%rsp), %rcx
	movq	32(%rcx), %rcx
	movq	%rcx, 96(%rbx)
	movq	%rax, 88(%r15)
	movl	$104, %edi
	callq	_malloc
	movq	%rax, %rbx
	movl	$64, %edi
	callq	_malloc
	movq	24(%rsp), %rcx
	movq	(%rcx), %rcx
	movq	%rcx, (%rax)
	movq	24(%rsp), %rcx
	movq	8(%rcx), %rcx
	movq	%rcx, 8(%rax)
	movq	8(%rsp), %rcx
	movq	(%rcx), %rcx
	movq	%rcx, 16(%rax)
	movq	8(%rsp), %rcx
	movq	8(%rcx), %rcx
	movq	%rcx, 24(%rax)
	movq	8(%rsp), %rcx
	movq	16(%rcx), %rcx
	movq	%rcx, 32(%rax)
	movq	8(%rsp), %rcx
	movq	24(%rcx), %rcx
	movq	%rcx, 40(%rax)
	movq	8(%rsp), %rcx
	movq	32(%rcx), %rcx
	movq	%rcx, 48(%rax)
	movq	8(%rsp), %rcx
	movq	40(%rcx), %rcx
	movq	%rcx, 56(%rax)
	movq	(%rax), %rax
	movq	%rax, (%rbx)
	movl	$64, %edi
	callq	_malloc
	movq	24(%rsp), %rcx
	movq	(%rcx), %rcx
	movq	%rcx, (%rax)
	movq	24(%rsp), %rcx
	movq	8(%rcx), %rcx
	movq	%rcx, 8(%rax)
	movq	8(%rsp), %rcx
	movq	(%rcx), %rcx
	movq	%rcx, 16(%rax)
	movq	8(%rsp), %rcx
	movq	8(%rcx), %rcx
	movq	%rcx, 24(%rax)
	movq	8(%rsp), %rcx
	movq	16(%rcx), %rcx
	movq	%rcx, 32(%rax)
	movq	8(%rsp), %rcx
	movq	24(%rcx), %rcx
	movq	%rcx, 40(%rax)
	movq	8(%rsp), %rcx
	movq	32(%rcx), %rcx
	movq	%rcx, 48(%rax)
	movq	8(%rsp), %rcx
	movq	40(%rcx), %rcx
	movq	%rcx, 56(%rax)
	movq	8(%rax), %rax
	movq	%rax, 8(%rbx)
	movl	$64, %edi
	callq	_malloc
	movq	24(%rsp), %rcx
	movq	(%rcx), %rcx
	movq	%rcx, (%rax)
	movq	24(%rsp), %rcx
	movq	8(%rcx), %rcx
	movq	%rcx, 8(%rax)
	movq	8(%rsp), %rcx
	movq	(%rcx), %rcx
	movq	%rcx, 16(%rax)
	movq	8(%rsp), %rcx
	movq	8(%rcx), %rcx
	movq	%rcx, 24(%rax)
	movq	8(%rsp), %rcx
	movq	16(%rcx), %rcx
	movq	%rcx, 32(%rax)
	movq	8(%rsp), %rcx
	movq	24(%rcx), %rcx
	movq	%rcx, 40(%rax)
	movq	8(%rsp), %rcx
	movq	32(%rcx), %rcx
	movq	%rcx, 48(%rax)
	movq	8(%rsp), %rcx
	movq	40(%rcx), %rcx
	movq	%rcx, 56(%rax)
	movq	16(%rax), %rax
	movq	%rax, 16(%rbx)
	movl	$64, %edi
	callq	_malloc
	movq	24(%rsp), %rcx
	movq	(%rcx), %rcx
	movq	%rcx, (%rax)
	movq	24(%rsp), %rcx
	movq	8(%rcx), %rcx
	movq	%rcx, 8(%rax)
	movq	8(%rsp), %rcx
	movq	(%rcx), %rcx
	movq	%rcx, 16(%rax)
	movq	8(%rsp), %rcx
	movq	8(%rcx), %rcx
	movq	%rcx, 24(%rax)
	movq	8(%rsp), %rdx
	movq	16(%rdx), %rdx
	movq	%rdx, 32(%rax)
	movq	8(%rsp), %rdx
	movq	24(%rdx), %rdx
	movq	%rdx, 40(%rax)
	movq	8(%rsp), %rdx
	movq	32(%rdx), %rdx
	movq	%rdx, 48(%rax)
	movq	8(%rsp), %rdx
	movq	40(%rdx), %rdx
	movq	%rdx, 56(%rax)
	movq	%rcx, 24(%rbx)
	movl	$64, %edi
	callq	_malloc
	movq	24(%rsp), %rcx
	movq	(%rcx), %rcx
	movq	%rcx, (%rax)
	movq	24(%rsp), %rcx
	movq	8(%rcx), %rcx
	movq	%rcx, 8(%rax)
	movq	8(%rsp), %rcx
	movq	(%rcx), %rcx
	movq	%rcx, 16(%rax)
	movq	8(%rsp), %rcx
	movq	8(%rcx), %rcx
	movq	%rcx, 24(%rax)
	movq	8(%rsp), %rcx
	movq	16(%rcx), %rcx
	movq	%rcx, 32(%rax)
	movq	8(%rsp), %rdx
	movq	24(%rdx), %rdx
	movq	%rdx, 40(%rax)
	movq	8(%rsp), %rdx
	movq	32(%rdx), %rdx
	movq	%rdx, 48(%rax)
	movq	8(%rsp), %rdx
	movq	40(%rdx), %rdx
	movq	%rdx, 56(%rax)
	movq	%rcx, 32(%rbx)
	movl	$64, %edi
	callq	_malloc
	movq	24(%rsp), %rcx
	movq	(%rcx), %rcx
	movq	%rcx, (%rax)
	movq	24(%rsp), %rcx
	movq	8(%rcx), %rcx
	movq	%rcx, 8(%rax)
	movq	8(%rsp), %rcx
	movq	(%rcx), %rcx
	movq	%rcx, 16(%rax)
	movq	8(%rsp), %rcx
	movq	8(%rcx), %rcx
	movq	%rcx, 24(%rax)
	movq	8(%rsp), %rcx
	movq	16(%rcx), %rcx
	movq	%rcx, 32(%rax)
	movq	8(%rsp), %rcx
	movq	24(%rcx), %rcx
	movq	%rcx, 40(%rax)
	movq	8(%rsp), %rdx
	movq	32(%rdx), %rdx
	movq	%rdx, 48(%rax)
	movq	8(%rsp), %rdx
	movq	40(%rdx), %rdx
	movq	%rdx, 56(%rax)
	movq	%rcx, 40(%rbx)
	movl	$64, %edi
	callq	_malloc
	movq	24(%rsp), %rcx
	movq	(%rcx), %rcx
	movq	%rcx, (%rax)
	movq	24(%rsp), %rcx
	movq	8(%rcx), %rcx
	movq	%rcx, 8(%rax)
	movq	8(%rsp), %rcx
	movq	(%rcx), %rcx
	movq	%rcx, 16(%rax)
	movq	8(%rsp), %rcx
	movq	8(%rcx), %rcx
	movq	%rcx, 24(%rax)
	movq	8(%rsp), %rcx
	movq	16(%rcx), %rcx
	movq	%rcx, 32(%rax)
	movq	8(%rsp), %rcx
	movq	24(%rcx), %rcx
	movq	%rcx, 40(%rax)
	movq	8(%rsp), %rcx
	movq	32(%rcx), %rcx
	movq	%rcx, 48(%rax)
	movq	8(%rsp), %rdx
	movq	40(%rdx), %rdx
	movq	%rdx, 56(%rax)
	movq	%rcx, 48(%rbx)
	movl	$64, %edi
	callq	_malloc
	movq	24(%rsp), %rcx
	movq	(%rcx), %rcx
	movq	%rcx, (%rax)
	movq	24(%rsp), %rcx
	movq	8(%rcx), %rcx
	movq	%rcx, 8(%rax)
	movq	8(%rsp), %rcx
	movq	(%rcx), %rcx
	movq	%rcx, 16(%rax)
	movq	8(%rsp), %rcx
	movq	8(%rcx), %rcx
	movq	%rcx, 24(%rax)
	movq	8(%rsp), %rcx
	movq	16(%rcx), %rcx
	movq	%rcx, 32(%rax)
	movq	8(%rsp), %rcx
	movq	24(%rcx), %rcx
	movq	%rcx, 40(%rax)
	movq	8(%rsp), %rcx
	movq	32(%rcx), %rcx
	movq	%rcx, 48(%rax)
	movq	8(%rsp), %rcx
	movq	40(%rcx), %rcx
	movq	%rcx, 56(%rax)
	movq	%rcx, 56(%rbx)
	movq	40(%rsp), %rax
	movq	(%rax), %rax
	movq	%rax, 64(%rbx)
	movq	40(%rsp), %rax
	movq	8(%rax), %rax
	movq	%rax, 72(%rbx)
	movq	40(%rsp), %rax
	movq	16(%rax), %rax
	movq	%rax, 80(%rbx)
	movq	40(%rsp), %rax
	movq	24(%rax), %rax
	movq	%rax, 88(%rbx)
	movq	40(%rsp), %rax
	movq	32(%rax), %rax
	movq	%rax, 96(%rbx)
	movq	%rax, 96(%r15)
	movq	56(%rsp), %rax
	movq	(%rax), %rax
	movq	%rax, 104(%r15)
	movq	56(%rsp), %rax
	movq	8(%rax), %rax
	movq	%rax, 112(%r15)
	movq	56(%rsp), %rax
	movq	16(%rax), %rax
	movq	%rax, 120(%r15)
	movq	56(%rsp), %rax
	movq	24(%rax), %rax
	movq	%rax, 128(%r15)
	movq	56(%rsp), %rax
	movq	32(%rax), %rax
	movq	%rax, 136(%r15)
	movq	8(%r15), %rax
	movq	%rax, 8(%r14)
	movl	$144, %edi
	callq	_malloc
	movq	%rax, %r15
	movl	$104, %edi
	callq	_malloc
	movq	%rax, %rbx
	movl	$64, %edi
	callq	_malloc
	movq	24(%rsp), %rcx
	movq	(%rcx), %rcx
	movq	%rcx, (%rax)
	movq	24(%rsp), %rcx
	movq	8(%rcx), %rcx
	movq	%rcx, 8(%rax)
	movq	8(%rsp), %rcx
	movq	(%rcx), %rcx
	movq	%rcx, 16(%rax)
	movq	8(%rsp), %rcx
	movq	8(%rcx), %rcx
	movq	%rcx, 24(%rax)
	movq	8(%rsp), %rcx
	movq	16(%rcx), %rcx
	movq	%rcx, 32(%rax)
	movq	8(%rsp), %rcx
	movq	24(%rcx), %rcx
	movq	%rcx, 40(%rax)
	movq	8(%rsp), %rcx
	movq	32(%rcx), %rcx
	movq	%rcx, 48(%rax)
	movq	8(%rsp), %rcx
	movq	40(%rcx), %rcx
	movq	%rcx, 56(%rax)
	movq	(%rax), %rax
	movq	%rax, (%rbx)
	movl	$64, %edi
	callq	_malloc
	movq	24(%rsp), %rcx
	movq	(%rcx), %rcx
	movq	%rcx, (%rax)
	movq	24(%rsp), %rcx
	movq	8(%rcx), %rcx
	movq	%rcx, 8(%rax)
	movq	8(%rsp), %rcx
	movq	(%rcx), %rcx
	movq	%rcx, 16(%rax)
	movq	8(%rsp), %rcx
	movq	8(%rcx), %rcx
	movq	%rcx, 24(%rax)
	movq	8(%rsp), %rcx
	movq	16(%rcx), %rcx
	movq	%rcx, 32(%rax)
	movq	8(%rsp), %rcx
	movq	24(%rcx), %rcx
	movq	%rcx, 40(%rax)
	movq	8(%rsp), %rcx
	movq	32(%rcx), %rcx
	movq	%rcx, 48(%rax)
	movq	8(%rsp), %rcx
	movq	40(%rcx), %rcx
	movq	%rcx, 56(%rax)
	movq	8(%rax), %rax
	movq	%rax, 8(%rbx)
	movl	$64, %edi
	callq	_malloc
	movq	24(%rsp), %rcx
	movq	(%rcx), %rcx
	movq	%rcx, (%rax)
	movq	24(%rsp), %rcx
	movq	8(%rcx), %rcx
	movq	%rcx, 8(%rax)
	movq	8(%rsp), %rcx
	movq	(%rcx), %rcx
	movq	%rcx, 16(%rax)
	movq	8(%rsp), %rcx
	movq	8(%rcx), %rcx
	movq	%rcx, 24(%rax)
	movq	8(%rsp), %rcx
	movq	16(%rcx), %rcx
	movq	%rcx, 32(%rax)
	movq	8(%rsp), %rcx
	movq	24(%rcx), %rcx
	movq	%rcx, 40(%rax)
	movq	8(%rsp), %rcx
	movq	32(%rcx), %rcx
	movq	%rcx, 48(%rax)
	movq	8(%rsp), %rcx
	movq	40(%rcx), %rcx
	movq	%rcx, 56(%rax)
	movq	16(%rax), %rax
	movq	%rax, 16(%rbx)
	movl	$64, %edi
	callq	_malloc
	movq	24(%rsp), %rcx
	movq	(%rcx), %rcx
	movq	%rcx, (%rax)
	movq	24(%rsp), %rcx
	movq	8(%rcx), %rcx
	movq	%rcx, 8(%rax)
	movq	8(%rsp), %rcx
	movq	(%rcx), %rcx
	movq	%rcx, 16(%rax)
	movq	8(%rsp), %rcx
	movq	8(%rcx), %rcx
	movq	%rcx, 24(%rax)
	movq	8(%rsp), %rdx
	movq	16(%rdx), %rdx
	movq	%rdx, 32(%rax)
	movq	8(%rsp), %rdx
	movq	24(%rdx), %rdx
	movq	%rdx, 40(%rax)
	movq	8(%rsp), %rdx
	movq	32(%rdx), %rdx
	movq	%rdx, 48(%rax)
	movq	8(%rsp), %rdx
	movq	40(%rdx), %rdx
	movq	%rdx, 56(%rax)
	movq	%rcx, 24(%rbx)
	movl	$64, %edi
	callq	_malloc
	movq	24(%rsp), %rcx
	movq	(%rcx), %rcx
	movq	%rcx, (%rax)
	movq	24(%rsp), %rcx
	movq	8(%rcx), %rcx
	movq	%rcx, 8(%rax)
	movq	8(%rsp), %rcx
	movq	(%rcx), %rcx
	movq	%rcx, 16(%rax)
	movq	8(%rsp), %rcx
	movq	8(%rcx), %rcx
	movq	%rcx, 24(%rax)
	movq	8(%rsp), %rcx
	movq	16(%rcx), %rcx
	movq	%rcx, 32(%rax)
	movq	8(%rsp), %rdx
	movq	24(%rdx), %rdx
	movq	%rdx, 40(%rax)
	movq	8(%rsp), %rdx
	movq	32(%rdx), %rdx
	movq	%rdx, 48(%rax)
	movq	8(%rsp), %rdx
	movq	40(%rdx), %rdx
	movq	%rdx, 56(%rax)
	movq	%rcx, 32(%rbx)
	movl	$64, %edi
	callq	_malloc
	movq	24(%rsp), %rcx
	movq	(%rcx), %rcx
	movq	%rcx, (%rax)
	movq	24(%rsp), %rcx
	movq	8(%rcx), %rcx
	movq	%rcx, 8(%rax)
	movq	8(%rsp), %rcx
	movq	(%rcx), %rcx
	movq	%rcx, 16(%rax)
	movq	8(%rsp), %rcx
	movq	8(%rcx), %rcx
	movq	%rcx, 24(%rax)
	movq	8(%rsp), %rcx
	movq	16(%rcx), %rcx
	movq	%rcx, 32(%rax)
	movq	8(%rsp), %rcx
	movq	24(%rcx), %rcx
	movq	%rcx, 40(%rax)
	movq	8(%rsp), %rdx
	movq	32(%rdx), %rdx
	movq	%rdx, 48(%rax)
	movq	8(%rsp), %rdx
	movq	40(%rdx), %rdx
	movq	%rdx, 56(%rax)
	movq	%rcx, 40(%rbx)
	movl	$64, %edi
	callq	_malloc
	movq	24(%rsp), %rcx
	movq	(%rcx), %rcx
	movq	%rcx, (%rax)
	movq	24(%rsp), %rcx
	movq	8(%rcx), %rcx
	movq	%rcx, 8(%rax)
	movq	8(%rsp), %rcx
	movq	(%rcx), %rcx
	movq	%rcx, 16(%rax)
	movq	8(%rsp), %rcx
	movq	8(%rcx), %rcx
	movq	%rcx, 24(%rax)
	movq	8(%rsp), %rcx
	movq	16(%rcx), %rcx
	movq	%rcx, 32(%rax)
	movq	8(%rsp), %rcx
	movq	24(%rcx), %rcx
	movq	%rcx, 40(%rax)
	movq	8(%rsp), %rcx
	movq	32(%rcx), %rcx
	movq	%rcx, 48(%rax)
	movq	8(%rsp), %rdx
	movq	40(%rdx), %rdx
	movq	%rdx, 56(%rax)
	movq	%rcx, 48(%rbx)
	movl	$64, %edi
	callq	_malloc
	movq	24(%rsp), %rcx
	movq	(%rcx), %rcx
	movq	%rcx, (%rax)
	movq	24(%rsp), %rcx
	movq	8(%rcx), %rcx
	movq	%rcx, 8(%rax)
	movq	8(%rsp), %rcx
	movq	(%rcx), %rcx
	movq	%rcx, 16(%rax)
	movq	8(%rsp), %rcx
	movq	8(%rcx), %rcx
	movq	%rcx, 24(%rax)
	movq	8(%rsp), %rcx
	movq	16(%rcx), %rcx
	movq	%rcx, 32(%rax)
	movq	8(%rsp), %rcx
	movq	24(%rcx), %rcx
	movq	%rcx, 40(%rax)
	movq	8(%rsp), %rcx
	movq	32(%rcx), %rcx
	movq	%rcx, 48(%rax)
	movq	8(%rsp), %rcx
	movq	40(%rcx), %rcx
	movq	%rcx, 56(%rax)
	movq	%rcx, 56(%rbx)
	movq	40(%rsp), %rax
	movq	(%rax), %rax
	movq	%rax, 64(%rbx)
	movq	40(%rsp), %rax
	movq	8(%rax), %rax
	movq	%rax, 72(%rbx)
	movq	40(%rsp), %rax
	movq	16(%rax), %rax
	movq	%rax, 80(%rbx)
	movq	40(%rsp), %rax
	movq	24(%rax), %rax
	movq	%rax, 88(%rbx)
	movq	40(%rsp), %rax
	movq	32(%rax), %rax
	movq	%rax, 96(%rbx)
	movq	(%rbx), %rax
	movq	%rax, (%r15)
	movl	$104, %edi
	callq	_malloc
	movq	%rax, %rbx
	movl	$64, %edi
	callq	_malloc
	movq	24(%rsp), %rcx
	movq	(%rcx), %rcx
	movq	%rcx, (%rax)
	movq	24(%rsp), %rcx
	movq	8(%rcx), %rcx
	movq	%rcx, 8(%rax)
	movq	8(%rsp), %rcx
	movq	(%rcx), %rcx
	movq	%rcx, 16(%rax)
	movq	8(%rsp), %rcx
	movq	8(%rcx), %rcx
	movq	%rcx, 24(%rax)
	movq	8(%rsp), %rcx
	movq	16(%rcx), %rcx
	movq	%rcx, 32(%rax)
	movq	8(%rsp), %rcx
	movq	24(%rcx), %rcx
	movq	%rcx, 40(%rax)
	movq	8(%rsp), %rcx
	movq	32(%rcx), %rcx
	movq	%rcx, 48(%rax)
	movq	8(%rsp), %rcx
	movq	40(%rcx), %rcx
	movq	%rcx, 56(%rax)
	movq	(%rax), %rax
	movq	%rax, (%rbx)
	movl	$64, %edi
	callq	_malloc
	movq	24(%rsp), %rcx
	movq	(%rcx), %rcx
	movq	%rcx, (%rax)
	movq	24(%rsp), %rcx
	movq	8(%rcx), %rcx
	movq	%rcx, 8(%rax)
	movq	8(%rsp), %rcx
	movq	(%rcx), %rcx
	movq	%rcx, 16(%rax)
	movq	8(%rsp), %rcx
	movq	8(%rcx), %rcx
	movq	%rcx, 24(%rax)
	movq	8(%rsp), %rcx
	movq	16(%rcx), %rcx
	movq	%rcx, 32(%rax)
	movq	8(%rsp), %rcx
	movq	24(%rcx), %rcx
	movq	%rcx, 40(%rax)
	movq	8(%rsp), %rcx
	movq	32(%rcx), %rcx
	movq	%rcx, 48(%rax)
	movq	8(%rsp), %rcx
	movq	40(%rcx), %rcx
	movq	%rcx, 56(%rax)
	movq	8(%rax), %rax
	movq	%rax, 8(%rbx)
	movl	$64, %edi
	callq	_malloc
	movq	24(%rsp), %rcx
	movq	(%rcx), %rcx
	movq	%rcx, (%rax)
	movq	24(%rsp), %rcx
	movq	8(%rcx), %rcx
	movq	%rcx, 8(%rax)
	movq	8(%rsp), %rcx
	movq	(%rcx), %rcx
	movq	%rcx, 16(%rax)
	movq	8(%rsp), %rcx
	movq	8(%rcx), %rcx
	movq	%rcx, 24(%rax)
	movq	8(%rsp), %rcx
	movq	16(%rcx), %rcx
	movq	%rcx, 32(%rax)
	movq	8(%rsp), %rcx
	movq	24(%rcx), %rcx
	movq	%rcx, 40(%rax)
	movq	8(%rsp), %rcx
	movq	32(%rcx), %rcx
	movq	%rcx, 48(%rax)
	movq	8(%rsp), %rcx
	movq	40(%rcx), %rcx
	movq	%rcx, 56(%rax)
	movq	16(%rax), %rax
	movq	%rax, 16(%rbx)
	movl	$64, %edi
	callq	_malloc
	movq	24(%rsp), %rcx
	movq	(%rcx), %rcx
	movq	%rcx, (%rax)
	movq	24(%rsp), %rcx
	movq	8(%rcx), %rcx
	movq	%rcx, 8(%rax)
	movq	8(%rsp), %rcx
	movq	(%rcx), %rcx
	movq	%rcx, 16(%rax)
	movq	8(%rsp), %rcx
	movq	8(%rcx), %rcx
	movq	%rcx, 24(%rax)
	movq	8(%rsp), %rdx
	movq	16(%rdx), %rdx
	movq	%rdx, 32(%rax)
	movq	8(%rsp), %rdx
	movq	24(%rdx), %rdx
	movq	%rdx, 40(%rax)
	movq	8(%rsp), %rdx
	movq	32(%rdx), %rdx
	movq	%rdx, 48(%rax)
	movq	8(%rsp), %rdx
	movq	40(%rdx), %rdx
	movq	%rdx, 56(%rax)
	movq	%rcx, 24(%rbx)
	movl	$64, %edi
	callq	_malloc
	movq	24(%rsp), %rcx
	movq	(%rcx), %rcx
	movq	%rcx, (%rax)
	movq	24(%rsp), %rcx
	movq	8(%rcx), %rcx
	movq	%rcx, 8(%rax)
	movq	8(%rsp), %rcx
	movq	(%rcx), %rcx
	movq	%rcx, 16(%rax)
	movq	8(%rsp), %rcx
	movq	8(%rcx), %rcx
	movq	%rcx, 24(%rax)
	movq	8(%rsp), %rcx
	movq	16(%rcx), %rcx
	movq	%rcx, 32(%rax)
	movq	8(%rsp), %rdx
	movq	24(%rdx), %rdx
	movq	%rdx, 40(%rax)
	movq	8(%rsp), %rdx
	movq	32(%rdx), %rdx
	movq	%rdx, 48(%rax)
	movq	8(%rsp), %rdx
	movq	40(%rdx), %rdx
	movq	%rdx, 56(%rax)
	movq	%rcx, 32(%rbx)
	movl	$64, %edi
	callq	_malloc
	movq	24(%rsp), %rcx
	movq	(%rcx), %rcx
	movq	%rcx, (%rax)
	movq	24(%rsp), %rcx
	movq	8(%rcx), %rcx
	movq	%rcx, 8(%rax)
	movq	8(%rsp), %rcx
	movq	(%rcx), %rcx
	movq	%rcx, 16(%rax)
	movq	8(%rsp), %rcx
	movq	8(%rcx), %rcx
	movq	%rcx, 24(%rax)
	movq	8(%rsp), %rcx
	movq	16(%rcx), %rcx
	movq	%rcx, 32(%rax)
	movq	8(%rsp), %rcx
	movq	24(%rcx), %rcx
	movq	%rcx, 40(%rax)
	movq	8(%rsp), %rdx
	movq	32(%rdx), %rdx
	movq	%rdx, 48(%rax)
	movq	8(%rsp), %rdx
	movq	40(%rdx), %rdx
	movq	%rdx, 56(%rax)
	movq	%rcx, 40(%rbx)
	movl	$64, %edi
	callq	_malloc
	movq	24(%rsp), %rcx
	movq	(%rcx), %rcx
	movq	%rcx, (%rax)
	movq	24(%rsp), %rcx
	movq	8(%rcx), %rcx
	movq	%rcx, 8(%rax)
	movq	8(%rsp), %rcx
	movq	(%rcx), %rcx
	movq	%rcx, 16(%rax)
	movq	8(%rsp), %rcx
	movq	8(%rcx), %rcx
	movq	%rcx, 24(%rax)
	movq	8(%rsp), %rcx
	movq	16(%rcx), %rcx
	movq	%rcx, 32(%rax)
	movq	8(%rsp), %rcx
	movq	24(%rcx), %rcx
	movq	%rcx, 40(%rax)
	movq	8(%rsp), %rcx
	movq	32(%rcx), %rcx
	movq	%rcx, 48(%rax)
	movq	8(%rsp), %rdx
	movq	40(%rdx), %rdx
	movq	%rdx, 56(%rax)
	movq	%rcx, 48(%rbx)
	movl	$64, %edi
	callq	_malloc
	movq	24(%rsp), %rcx
	movq	(%rcx), %rcx
	movq	%rcx, (%rax)
	movq	24(%rsp), %rcx
	movq	8(%rcx), %rcx
	movq	%rcx, 8(%rax)
	movq	8(%rsp), %rcx
	movq	(%rcx), %rcx
	movq	%rcx, 16(%rax)
	movq	8(%rsp), %rcx
	movq	8(%rcx), %rcx
	movq	%rcx, 24(%rax)
	movq	8(%rsp), %rcx
	movq	16(%rcx), %rcx
	movq	%rcx, 32(%rax)
	movq	8(%rsp), %rcx
	movq	24(%rcx), %rcx
	movq	%rcx, 40(%rax)
	movq	8(%rsp), %rcx
	movq	32(%rcx), %rcx
	movq	%rcx, 48(%rax)
	movq	8(%rsp), %rcx
	movq	40(%rcx), %rcx
	movq	%rcx, 56(%rax)
	movq	%rcx, 56(%rbx)
	movq	40(%rsp), %rax
	movq	(%rax), %rax
	movq	%rax, 64(%rbx)
	movq	40(%rsp), %rax
	movq	8(%rax), %rax
	movq	%rax, 72(%rbx)
	movq	40(%rsp), %rax
	movq	16(%rax), %rax
	movq	%rax, 80(%rbx)
	movq	40(%rsp), %rax
	movq	24(%rax), %rax
	movq	%rax, 88(%rbx)
	movq	40(%rsp), %rax
	movq	32(%rax), %rax
	movq	%rax, 96(%rbx)
	movq	8(%rbx), %rax
	movq	%rax, 8(%r15)
	movl	$104, %edi
	callq	_malloc
	movq	%rax, %rbx
	movl	$64, %edi
	callq	_malloc
	movq	24(%rsp), %rcx
	movq	(%rcx), %rcx
	movq	%rcx, (%rax)
	movq	24(%rsp), %rcx
	movq	8(%rcx), %rcx
	movq	%rcx, 8(%rax)
	movq	8(%rsp), %rcx
	movq	(%rcx), %rcx
	movq	%rcx, 16(%rax)
	movq	8(%rsp), %rcx
	movq	8(%rcx), %rcx
	movq	%rcx, 24(%rax)
	movq	8(%rsp), %rcx
	movq	16(%rcx), %rcx
	movq	%rcx, 32(%rax)
	movq	8(%rsp), %rcx
	movq	24(%rcx), %rcx
	movq	%rcx, 40(%rax)
	movq	8(%rsp), %rcx
	movq	32(%rcx), %rcx
	movq	%rcx, 48(%rax)
	movq	8(%rsp), %rcx
	movq	40(%rcx), %rcx
	movq	%rcx, 56(%rax)
	movq	(%rax), %rax
	movq	%rax, (%rbx)
	movl	$64, %edi
	callq	_malloc
	movq	24(%rsp), %rcx
	movq	(%rcx), %rcx
	movq	%rcx, (%rax)
	movq	24(%rsp), %rcx
	movq	8(%rcx), %rcx
	movq	%rcx, 8(%rax)
	movq	8(%rsp), %rcx
	movq	(%rcx), %rcx
	movq	%rcx, 16(%rax)
	movq	8(%rsp), %rcx
	movq	8(%rcx), %rcx
	movq	%rcx, 24(%rax)
	movq	8(%rsp), %rcx
	movq	16(%rcx), %rcx
	movq	%rcx, 32(%rax)
	movq	8(%rsp), %rcx
	movq	24(%rcx), %rcx
	movq	%rcx, 40(%rax)
	movq	8(%rsp), %rcx
	movq	32(%rcx), %rcx
	movq	%rcx, 48(%rax)
	movq	8(%rsp), %rcx
	movq	40(%rcx), %rcx
	movq	%rcx, 56(%rax)
	movq	8(%rax), %rax
	movq	%rax, 8(%rbx)
	movl	$64, %edi
	callq	_malloc
	movq	24(%rsp), %rcx
	movq	(%rcx), %rcx
	movq	%rcx, (%rax)
	movq	24(%rsp), %rcx
	movq	8(%rcx), %rcx
	movq	%rcx, 8(%rax)
	movq	8(%rsp), %rcx
	movq	(%rcx), %rcx
	movq	%rcx, 16(%rax)
	movq	8(%rsp), %rcx
	movq	8(%rcx), %rcx
	movq	%rcx, 24(%rax)
	movq	8(%rsp), %rcx
	movq	16(%rcx), %rcx
	movq	%rcx, 32(%rax)
	movq	8(%rsp), %rcx
	movq	24(%rcx), %rcx
	movq	%rcx, 40(%rax)
	movq	8(%rsp), %rcx
	movq	32(%rcx), %rcx
	movq	%rcx, 48(%rax)
	movq	8(%rsp), %rcx
	movq	40(%rcx), %rcx
	movq	%rcx, 56(%rax)
	movq	16(%rax), %rax
	movq	%rax, 16(%rbx)
	movl	$64, %edi
	callq	_malloc
	movq	24(%rsp), %rcx
	movq	(%rcx), %rcx
	movq	%rcx, (%rax)
	movq	24(%rsp), %rcx
	movq	8(%rcx), %rcx
	movq	%rcx, 8(%rax)
	movq	8(%rsp), %rcx
	movq	(%rcx), %rcx
	movq	%rcx, 16(%rax)
	movq	8(%rsp), %rcx
	movq	8(%rcx), %rcx
	movq	%rcx, 24(%rax)
	movq	8(%rsp), %rdx
	movq	16(%rdx), %rdx
	movq	%rdx, 32(%rax)
	movq	8(%rsp), %rdx
	movq	24(%rdx), %rdx
	movq	%rdx, 40(%rax)
	movq	8(%rsp), %rdx
	movq	32(%rdx), %rdx
	movq	%rdx, 48(%rax)
	movq	8(%rsp), %rdx
	movq	40(%rdx), %rdx
	movq	%rdx, 56(%rax)
	movq	%rcx, 24(%rbx)
	movl	$64, %edi
	callq	_malloc
	movq	24(%rsp), %rcx
	movq	(%rcx), %rcx
	movq	%rcx, (%rax)
	movq	24(%rsp), %rcx
	movq	8(%rcx), %rcx
	movq	%rcx, 8(%rax)
	movq	8(%rsp), %rcx
	movq	(%rcx), %rcx
	movq	%rcx, 16(%rax)
	movq	8(%rsp), %rcx
	movq	8(%rcx), %rcx
	movq	%rcx, 24(%rax)
	movq	8(%rsp), %rcx
	movq	16(%rcx), %rcx
	movq	%rcx, 32(%rax)
	movq	8(%rsp), %rdx
	movq	24(%rdx), %rdx
	movq	%rdx, 40(%rax)
	movq	8(%rsp), %rdx
	movq	32(%rdx), %rdx
	movq	%rdx, 48(%rax)
	movq	8(%rsp), %rdx
	movq	40(%rdx), %rdx
	movq	%rdx, 56(%rax)
	movq	%rcx, 32(%rbx)
	movl	$64, %edi
	callq	_malloc
	movq	24(%rsp), %rcx
	movq	(%rcx), %rcx
	movq	%rcx, (%rax)
	movq	24(%rsp), %rcx
	movq	8(%rcx), %rcx
	movq	%rcx, 8(%rax)
	movq	8(%rsp), %rcx
	movq	(%rcx), %rcx
	movq	%rcx, 16(%rax)
	movq	8(%rsp), %rcx
	movq	8(%rcx), %rcx
	movq	%rcx, 24(%rax)
	movq	8(%rsp), %rcx
	movq	16(%rcx), %rcx
	movq	%rcx, 32(%rax)
	movq	8(%rsp), %rcx
	movq	24(%rcx), %rcx
	movq	%rcx, 40(%rax)
	movq	8(%rsp), %rdx
	movq	32(%rdx), %rdx
	movq	%rdx, 48(%rax)
	movq	8(%rsp), %rdx
	movq	40(%rdx), %rdx
	movq	%rdx, 56(%rax)
	movq	%rcx, 40(%rbx)
	movl	$64, %edi
	callq	_malloc
	movq	24(%rsp), %rcx
	movq	(%rcx), %rcx
	movq	%rcx, (%rax)
	movq	24(%rsp), %rcx
	movq	8(%rcx), %rcx
	movq	%rcx, 8(%rax)
	movq	8(%rsp), %rcx
	movq	(%rcx), %rcx
	movq	%rcx, 16(%rax)
	movq	8(%rsp), %rcx
	movq	8(%rcx), %rcx
	movq	%rcx, 24(%rax)
	movq	8(%rsp), %rcx
	movq	16(%rcx), %rcx
	movq	%rcx, 32(%rax)
	movq	8(%rsp), %rcx
	movq	24(%rcx), %rcx
	movq	%rcx, 40(%rax)
	movq	8(%rsp), %rcx
	movq	32(%rcx), %rcx
	movq	%rcx, 48(%rax)
	movq	8(%rsp), %rdx
	movq	40(%rdx), %rdx
	movq	%rdx, 56(%rax)
	movq	%rcx, 48(%rbx)
	movl	$64, %edi
	callq	_malloc
	movq	24(%rsp), %rcx
	movq	(%rcx), %rcx
	movq	%rcx, (%rax)
	movq	24(%rsp), %rcx
	movq	8(%rcx), %rcx
	movq	%rcx, 8(%rax)
	movq	8(%rsp), %rcx
	movq	(%rcx), %rcx
	movq	%rcx, 16(%rax)
	movq	8(%rsp), %rcx
	movq	8(%rcx), %rcx
	movq	%rcx, 24(%rax)
	movq	8(%rsp), %rcx
	movq	16(%rcx), %rcx
	movq	%rcx, 32(%rax)
	movq	8(%rsp), %rcx
	movq	24(%rcx), %rcx
	movq	%rcx, 40(%rax)
	movq	8(%rsp), %rcx
	movq	32(%rcx), %rcx
	movq	%rcx, 48(%rax)
	movq	8(%rsp), %rcx
	movq	40(%rcx), %rcx
	movq	%rcx, 56(%rax)
	movq	%rcx, 56(%rbx)
	movq	40(%rsp), %rax
	movq	(%rax), %rax
	movq	%rax, 64(%rbx)
	movq	40(%rsp), %rax
	movq	8(%rax), %rax
	movq	%rax, 72(%rbx)
	movq	40(%rsp), %rax
	movq	16(%rax), %rax
	movq	%rax, 80(%rbx)
	movq	40(%rsp), %rax
	movq	24(%rax), %rax
	movq	%rax, 88(%rbx)
	movq	40(%rsp), %rax
	movq	32(%rax), %rax
	movq	%rax, 96(%rbx)
	movq	16(%rbx), %rax
	movq	%rax, 16(%r15)
	movl	$104, %edi
	callq	_malloc
	movq	%rax, %rbx
	movl	$64, %edi
	callq	_malloc
	movq	24(%rsp), %rcx
	movq	(%rcx), %rcx
	movq	%rcx, (%rax)
	movq	24(%rsp), %rcx
	movq	8(%rcx), %rcx
	movq	%rcx, 8(%rax)
	movq	8(%rsp), %rcx
	movq	(%rcx), %rcx
	movq	%rcx, 16(%rax)
	movq	8(%rsp), %rcx
	movq	8(%rcx), %rcx
	movq	%rcx, 24(%rax)
	movq	8(%rsp), %rcx
	movq	16(%rcx), %rcx
	movq	%rcx, 32(%rax)
	movq	8(%rsp), %rcx
	movq	24(%rcx), %rcx
	movq	%rcx, 40(%rax)
	movq	8(%rsp), %rcx
	movq	32(%rcx), %rcx
	movq	%rcx, 48(%rax)
	movq	8(%rsp), %rcx
	movq	40(%rcx), %rcx
	movq	%rcx, 56(%rax)
	movq	(%rax), %rax
	movq	%rax, (%rbx)
	movl	$64, %edi
	callq	_malloc
	movq	24(%rsp), %rcx
	movq	(%rcx), %rcx
	movq	%rcx, (%rax)
	movq	24(%rsp), %rcx
	movq	8(%rcx), %rcx
	movq	%rcx, 8(%rax)
	movq	8(%rsp), %rcx
	movq	(%rcx), %rcx
	movq	%rcx, 16(%rax)
	movq	8(%rsp), %rcx
	movq	8(%rcx), %rcx
	movq	%rcx, 24(%rax)
	movq	8(%rsp), %rcx
	movq	16(%rcx), %rcx
	movq	%rcx, 32(%rax)
	movq	8(%rsp), %rcx
	movq	24(%rcx), %rcx
	movq	%rcx, 40(%rax)
	movq	8(%rsp), %rcx
	movq	32(%rcx), %rcx
	movq	%rcx, 48(%rax)
	movq	8(%rsp), %rcx
	movq	40(%rcx), %rcx
	movq	%rcx, 56(%rax)
	movq	8(%rax), %rax
	movq	%rax, 8(%rbx)
	movl	$64, %edi
	callq	_malloc
	movq	24(%rsp), %rcx
	movq	(%rcx), %rcx
	movq	%rcx, (%rax)
	movq	24(%rsp), %rcx
	movq	8(%rcx), %rcx
	movq	%rcx, 8(%rax)
	movq	8(%rsp), %rcx
	movq	(%rcx), %rcx
	movq	%rcx, 16(%rax)
	movq	8(%rsp), %rcx
	movq	8(%rcx), %rcx
	movq	%rcx, 24(%rax)
	movq	8(%rsp), %rcx
	movq	16(%rcx), %rcx
	movq	%rcx, 32(%rax)
	movq	8(%rsp), %rcx
	movq	24(%rcx), %rcx
	movq	%rcx, 40(%rax)
	movq	8(%rsp), %rcx
	movq	32(%rcx), %rcx
	movq	%rcx, 48(%rax)
	movq	8(%rsp), %rcx
	movq	40(%rcx), %rcx
	movq	%rcx, 56(%rax)
	movq	16(%rax), %rax
	movq	%rax, 16(%rbx)
	movl	$64, %edi
	callq	_malloc
	movq	24(%rsp), %rcx
	movq	(%rcx), %rcx
	movq	%rcx, (%rax)
	movq	24(%rsp), %rcx
	movq	8(%rcx), %rcx
	movq	%rcx, 8(%rax)
	movq	8(%rsp), %rcx
	movq	(%rcx), %rcx
	movq	%rcx, 16(%rax)
	movq	8(%rsp), %rcx
	movq	8(%rcx), %rcx
	movq	%rcx, 24(%rax)
	movq	8(%rsp), %rdx
	movq	16(%rdx), %rdx
	movq	%rdx, 32(%rax)
	movq	8(%rsp), %rdx
	movq	24(%rdx), %rdx
	movq	%rdx, 40(%rax)
	movq	8(%rsp), %rdx
	movq	32(%rdx), %rdx
	movq	%rdx, 48(%rax)
	movq	8(%rsp), %rdx
	movq	40(%rdx), %rdx
	movq	%rdx, 56(%rax)
	movq	%rcx, 24(%rbx)
	movl	$64, %edi
	callq	_malloc
	movq	24(%rsp), %rcx
	movq	(%rcx), %rcx
	movq	%rcx, (%rax)
	movq	24(%rsp), %rcx
	movq	8(%rcx), %rcx
	movq	%rcx, 8(%rax)
	movq	8(%rsp), %rcx
	movq	(%rcx), %rcx
	movq	%rcx, 16(%rax)
	movq	8(%rsp), %rcx
	movq	8(%rcx), %rcx
	movq	%rcx, 24(%rax)
	movq	8(%rsp), %rcx
	movq	16(%rcx), %rcx
	movq	%rcx, 32(%rax)
	movq	8(%rsp), %rdx
	movq	24(%rdx), %rdx
	movq	%rdx, 40(%rax)
	movq	8(%rsp), %rdx
	movq	32(%rdx), %rdx
	movq	%rdx, 48(%rax)
	movq	8(%rsp), %rdx
	movq	40(%rdx), %rdx
	movq	%rdx, 56(%rax)
	movq	%rcx, 32(%rbx)
	movl	$64, %edi
	callq	_malloc
	movq	24(%rsp), %rcx
	movq	(%rcx), %rcx
	movq	%rcx, (%rax)
	movq	24(%rsp), %rcx
	movq	8(%rcx), %rcx
	movq	%rcx, 8(%rax)
	movq	8(%rsp), %rcx
	movq	(%rcx), %rcx
	movq	%rcx, 16(%rax)
	movq	8(%rsp), %rcx
	movq	8(%rcx), %rcx
	movq	%rcx, 24(%rax)
	movq	8(%rsp), %rcx
	movq	16(%rcx), %rcx
	movq	%rcx, 32(%rax)
	movq	8(%rsp), %rcx
	movq	24(%rcx), %rcx
	movq	%rcx, 40(%rax)
	movq	8(%rsp), %rdx
	movq	32(%rdx), %rdx
	movq	%rdx, 48(%rax)
	movq	8(%rsp), %rdx
	movq	40(%rdx), %rdx
	movq	%rdx, 56(%rax)
	movq	%rcx, 40(%rbx)
	movl	$64, %edi
	callq	_malloc
	movq	24(%rsp), %rcx
	movq	(%rcx), %rcx
	movq	%rcx, (%rax)
	movq	24(%rsp), %rcx
	movq	8(%rcx), %rcx
	movq	%rcx, 8(%rax)
	movq	8(%rsp), %rcx
	movq	(%rcx), %rcx
	movq	%rcx, 16(%rax)
	movq	8(%rsp), %rcx
	movq	8(%rcx), %rcx
	movq	%rcx, 24(%rax)
	movq	8(%rsp), %rcx
	movq	16(%rcx), %rcx
	movq	%rcx, 32(%rax)
	movq	8(%rsp), %rcx
	movq	24(%rcx), %rcx
	movq	%rcx, 40(%rax)
	movq	8(%rsp), %rcx
	movq	32(%rcx), %rcx
	movq	%rcx, 48(%rax)
	movq	8(%rsp), %rdx
	movq	40(%rdx), %rdx
	movq	%rdx, 56(%rax)
	movq	%rcx, 48(%rbx)
	movl	$64, %edi
	callq	_malloc
	movq	24(%rsp), %rcx
	movq	(%rcx), %rcx
	movq	%rcx, (%rax)
	movq	24(%rsp), %rcx
	movq	8(%rcx), %rcx
	movq	%rcx, 8(%rax)
	movq	8(%rsp), %rcx
	movq	(%rcx), %rcx
	movq	%rcx, 16(%rax)
	movq	8(%rsp), %rcx
	movq	8(%rcx), %rcx
	movq	%rcx, 24(%rax)
	movq	8(%rsp), %rcx
	movq	16(%rcx), %rcx
	movq	%rcx, 32(%rax)
	movq	8(%rsp), %rcx
	movq	24(%rcx), %rcx
	movq	%rcx, 40(%rax)
	movq	8(%rsp), %rcx
	movq	32(%rcx), %rcx
	movq	%rcx, 48(%rax)
	movq	8(%rsp), %rcx
	movq	40(%rcx), %rcx
	movq	%rcx, 56(%rax)
	movq	%rcx, 56(%rbx)
	movq	40(%rsp), %rax
	movq	(%rax), %rax
	movq	%rax, 64(%rbx)
	movq	40(%rsp), %rax
	movq	8(%rax), %rax
	movq	%rax, 72(%rbx)
	movq	40(%rsp), %rax
	movq	16(%rax), %rax
	movq	%rax, 80(%rbx)
	movq	40(%rsp), %rax
	movq	24(%rax), %rax
	movq	%rax, 88(%rbx)
	movq	40(%rsp), %rax
	movq	32(%rax), %rax
	movq	%rax, 96(%rbx)
	movq	24(%rbx), %rax
	movq	%rax, 24(%r15)
	movl	$104, %edi
	callq	_malloc
	movq	%rax, %rbx
	movl	$64, %edi
	callq	_malloc
	movq	24(%rsp), %rcx
	movq	(%rcx), %rcx
	movq	%rcx, (%rax)
	movq	24(%rsp), %rcx
	movq	8(%rcx), %rcx
	movq	%rcx, 8(%rax)
	movq	8(%rsp), %rcx
	movq	(%rcx), %rcx
	movq	%rcx, 16(%rax)
	movq	8(%rsp), %rcx
	movq	8(%rcx), %rcx
	movq	%rcx, 24(%rax)
	movq	8(%rsp), %rcx
	movq	16(%rcx), %rcx
	movq	%rcx, 32(%rax)
	movq	8(%rsp), %rcx
	movq	24(%rcx), %rcx
	movq	%rcx, 40(%rax)
	movq	8(%rsp), %rcx
	movq	32(%rcx), %rcx
	movq	%rcx, 48(%rax)
	movq	8(%rsp), %rcx
	movq	40(%rcx), %rcx
	movq	%rcx, 56(%rax)
	movq	(%rax), %rax
	movq	%rax, (%rbx)
	movl	$64, %edi
	callq	_malloc
	movq	24(%rsp), %rcx
	movq	(%rcx), %rcx
	movq	%rcx, (%rax)
	movq	24(%rsp), %rcx
	movq	8(%rcx), %rcx
	movq	%rcx, 8(%rax)
	movq	8(%rsp), %rcx
	movq	(%rcx), %rcx
	movq	%rcx, 16(%rax)
	movq	8(%rsp), %rcx
	movq	8(%rcx), %rcx
	movq	%rcx, 24(%rax)
	movq	8(%rsp), %rcx
	movq	16(%rcx), %rcx
	movq	%rcx, 32(%rax)
	movq	8(%rsp), %rcx
	movq	24(%rcx), %rcx
	movq	%rcx, 40(%rax)
	movq	8(%rsp), %rcx
	movq	32(%rcx), %rcx
	movq	%rcx, 48(%rax)
	movq	8(%rsp), %rcx
	movq	40(%rcx), %rcx
	movq	%rcx, 56(%rax)
	movq	8(%rax), %rax
	movq	%rax, 8(%rbx)
	movl	$64, %edi
	callq	_malloc
	movq	24(%rsp), %rcx
	movq	(%rcx), %rcx
	movq	%rcx, (%rax)
	movq	24(%rsp), %rcx
	movq	8(%rcx), %rcx
	movq	%rcx, 8(%rax)
	movq	8(%rsp), %rcx
	movq	(%rcx), %rcx
	movq	%rcx, 16(%rax)
	movq	8(%rsp), %rcx
	movq	8(%rcx), %rcx
	movq	%rcx, 24(%rax)
	movq	8(%rsp), %rcx
	movq	16(%rcx), %rcx
	movq	%rcx, 32(%rax)
	movq	8(%rsp), %rcx
	movq	24(%rcx), %rcx
	movq	%rcx, 40(%rax)
	movq	8(%rsp), %rcx
	movq	32(%rcx), %rcx
	movq	%rcx, 48(%rax)
	movq	8(%rsp), %rcx
	movq	40(%rcx), %rcx
	movq	%rcx, 56(%rax)
	movq	16(%rax), %rax
	movq	%rax, 16(%rbx)
	movl	$64, %edi
	callq	_malloc
	movq	24(%rsp), %rcx
	movq	(%rcx), %rcx
	movq	%rcx, (%rax)
	movq	24(%rsp), %rcx
	movq	8(%rcx), %rcx
	movq	%rcx, 8(%rax)
	movq	8(%rsp), %rcx
	movq	(%rcx), %rcx
	movq	%rcx, 16(%rax)
	movq	8(%rsp), %rcx
	movq	8(%rcx), %rcx
	movq	%rcx, 24(%rax)
	movq	8(%rsp), %rdx
	movq	16(%rdx), %rdx
	movq	%rdx, 32(%rax)
	movq	8(%rsp), %rdx
	movq	24(%rdx), %rdx
	movq	%rdx, 40(%rax)
	movq	8(%rsp), %rdx
	movq	32(%rdx), %rdx
	movq	%rdx, 48(%rax)
	movq	8(%rsp), %rdx
	movq	40(%rdx), %rdx
	movq	%rdx, 56(%rax)
	movq	%rcx, 24(%rbx)
	movl	$64, %edi
	callq	_malloc
	movq	24(%rsp), %rcx
	movq	(%rcx), %rcx
	movq	%rcx, (%rax)
	movq	24(%rsp), %rcx
	movq	8(%rcx), %rcx
	movq	%rcx, 8(%rax)
	movq	8(%rsp), %rcx
	movq	(%rcx), %rcx
	movq	%rcx, 16(%rax)
	movq	8(%rsp), %rcx
	movq	8(%rcx), %rcx
	movq	%rcx, 24(%rax)
	movq	8(%rsp), %rcx
	movq	16(%rcx), %rcx
	movq	%rcx, 32(%rax)
	movq	8(%rsp), %rdx
	movq	24(%rdx), %rdx
	movq	%rdx, 40(%rax)
	movq	8(%rsp), %rdx
	movq	32(%rdx), %rdx
	movq	%rdx, 48(%rax)
	movq	8(%rsp), %rdx
	movq	40(%rdx), %rdx
	movq	%rdx, 56(%rax)
	movq	%rcx, 32(%rbx)
	movl	$64, %edi
	callq	_malloc
	movq	24(%rsp), %rcx
	movq	(%rcx), %rcx
	movq	%rcx, (%rax)
	movq	24(%rsp), %rcx
	movq	8(%rcx), %rcx
	movq	%rcx, 8(%rax)
	movq	8(%rsp), %rcx
	movq	(%rcx), %rcx
	movq	%rcx, 16(%rax)
	movq	8(%rsp), %rcx
	movq	8(%rcx), %rcx
	movq	%rcx, 24(%rax)
	movq	8(%rsp), %rcx
	movq	16(%rcx), %rcx
	movq	%rcx, 32(%rax)
	movq	8(%rsp), %rcx
	movq	24(%rcx), %rcx
	movq	%rcx, 40(%rax)
	movq	8(%rsp), %rdx
	movq	32(%rdx), %rdx
	movq	%rdx, 48(%rax)
	movq	8(%rsp), %rdx
	movq	40(%rdx), %rdx
	movq	%rdx, 56(%rax)
	movq	%rcx, 40(%rbx)
	movl	$64, %edi
	callq	_malloc
	movq	24(%rsp), %rcx
	movq	(%rcx), %rcx
	movq	%rcx, (%rax)
	movq	24(%rsp), %rcx
	movq	8(%rcx), %rcx
	movq	%rcx, 8(%rax)
	movq	8(%rsp), %rcx
	movq	(%rcx), %rcx
	movq	%rcx, 16(%rax)
	movq	8(%rsp), %rcx
	movq	8(%rcx), %rcx
	movq	%rcx, 24(%rax)
	movq	8(%rsp), %rcx
	movq	16(%rcx), %rcx
	movq	%rcx, 32(%rax)
	movq	8(%rsp), %rcx
	movq	24(%rcx), %rcx
	movq	%rcx, 40(%rax)
	movq	8(%rsp), %rcx
	movq	32(%rcx), %rcx
	movq	%rcx, 48(%rax)
	movq	8(%rsp), %rdx
	movq	40(%rdx), %rdx
	movq	%rdx, 56(%rax)
	movq	%rcx, 48(%rbx)
	movl	$64, %edi
	callq	_malloc
	movq	24(%rsp), %rcx
	movq	(%rcx), %rcx
	movq	%rcx, (%rax)
	movq	24(%rsp), %rcx
	movq	8(%rcx), %rcx
	movq	%rcx, 8(%rax)
	movq	8(%rsp), %rcx
	movq	(%rcx), %rcx
	movq	%rcx, 16(%rax)
	movq	8(%rsp), %rcx
	movq	8(%rcx), %rcx
	movq	%rcx, 24(%rax)
	movq	8(%rsp), %rcx
	movq	16(%rcx), %rcx
	movq	%rcx, 32(%rax)
	movq	8(%rsp), %rcx
	movq	24(%rcx), %rcx
	movq	%rcx, 40(%rax)
	movq	8(%rsp), %rcx
	movq	32(%rcx), %rcx
	movq	%rcx, 48(%rax)
	movq	8(%rsp), %rcx
	movq	40(%rcx), %rcx
	movq	%rcx, 56(%rax)
	movq	%rcx, 56(%rbx)
	movq	40(%rsp), %rax
	movq	(%rax), %rax
	movq	%rax, 64(%rbx)
	movq	40(%rsp), %rax
	movq	8(%rax), %rax
	movq	%rax, 72(%rbx)
	movq	40(%rsp), %rax
	movq	16(%rax), %rax
	movq	%rax, 80(%rbx)
	movq	40(%rsp), %rax
	movq	24(%rax), %rax
	movq	%rax, 88(%rbx)
	movq	40(%rsp), %rax
	movq	32(%rax), %rax
	movq	%rax, 96(%rbx)
	movq	32(%rbx), %rax
	movq	%rax, 32(%r15)
	movl	$104, %edi
	callq	_malloc
	movq	%rax, %rbx
	movl	$64, %edi
	callq	_malloc
	movq	24(%rsp), %rcx
	movq	(%rcx), %rcx
	movq	%rcx, (%rax)
	movq	24(%rsp), %rcx
	movq	8(%rcx), %rcx
	movq	%rcx, 8(%rax)
	movq	8(%rsp), %rcx
	movq	(%rcx), %rcx
	movq	%rcx, 16(%rax)
	movq	8(%rsp), %rcx
	movq	8(%rcx), %rcx
	movq	%rcx, 24(%rax)
	movq	8(%rsp), %rcx
	movq	16(%rcx), %rcx
	movq	%rcx, 32(%rax)
	movq	8(%rsp), %rcx
	movq	24(%rcx), %rcx
	movq	%rcx, 40(%rax)
	movq	8(%rsp), %rcx
	movq	32(%rcx), %rcx
	movq	%rcx, 48(%rax)
	movq	8(%rsp), %rcx
	movq	40(%rcx), %rcx
	movq	%rcx, 56(%rax)
	movq	(%rax), %rax
	movq	%rax, (%rbx)
	movl	$64, %edi
	callq	_malloc
	movq	24(%rsp), %rcx
	movq	(%rcx), %rcx
	movq	%rcx, (%rax)
	movq	24(%rsp), %rcx
	movq	8(%rcx), %rcx
	movq	%rcx, 8(%rax)
	movq	8(%rsp), %rcx
	movq	(%rcx), %rcx
	movq	%rcx, 16(%rax)
	movq	8(%rsp), %rcx
	movq	8(%rcx), %rcx
	movq	%rcx, 24(%rax)
	movq	8(%rsp), %rcx
	movq	16(%rcx), %rcx
	movq	%rcx, 32(%rax)
	movq	8(%rsp), %rcx
	movq	24(%rcx), %rcx
	movq	%rcx, 40(%rax)
	movq	8(%rsp), %rcx
	movq	32(%rcx), %rcx
	movq	%rcx, 48(%rax)
	movq	8(%rsp), %rcx
	movq	40(%rcx), %rcx
	movq	%rcx, 56(%rax)
	movq	8(%rax), %rax
	movq	%rax, 8(%rbx)
	movl	$64, %edi
	callq	_malloc
	movq	24(%rsp), %rcx
	movq	(%rcx), %rcx
	movq	%rcx, (%rax)
	movq	24(%rsp), %rcx
	movq	8(%rcx), %rcx
	movq	%rcx, 8(%rax)
	movq	8(%rsp), %rcx
	movq	(%rcx), %rcx
	movq	%rcx, 16(%rax)
	movq	8(%rsp), %rcx
	movq	8(%rcx), %rcx
	movq	%rcx, 24(%rax)
	movq	8(%rsp), %rcx
	movq	16(%rcx), %rcx
	movq	%rcx, 32(%rax)
	movq	8(%rsp), %rcx
	movq	24(%rcx), %rcx
	movq	%rcx, 40(%rax)
	movq	8(%rsp), %rcx
	movq	32(%rcx), %rcx
	movq	%rcx, 48(%rax)
	movq	8(%rsp), %rcx
	movq	40(%rcx), %rcx
	movq	%rcx, 56(%rax)
	movq	16(%rax), %rax
	movq	%rax, 16(%rbx)
	movl	$64, %edi
	callq	_malloc
	movq	24(%rsp), %rcx
	movq	(%rcx), %rcx
	movq	%rcx, (%rax)
	movq	24(%rsp), %rcx
	movq	8(%rcx), %rcx
	movq	%rcx, 8(%rax)
	movq	8(%rsp), %rcx
	movq	(%rcx), %rcx
	movq	%rcx, 16(%rax)
	movq	8(%rsp), %rcx
	movq	8(%rcx), %rcx
	movq	%rcx, 24(%rax)
	movq	8(%rsp), %rdx
	movq	16(%rdx), %rdx
	movq	%rdx, 32(%rax)
	movq	8(%rsp), %rdx
	movq	24(%rdx), %rdx
	movq	%rdx, 40(%rax)
	movq	8(%rsp), %rdx
	movq	32(%rdx), %rdx
	movq	%rdx, 48(%rax)
	movq	8(%rsp), %rdx
	movq	40(%rdx), %rdx
	movq	%rdx, 56(%rax)
	movq	%rcx, 24(%rbx)
	movl	$64, %edi
	callq	_malloc
	movq	24(%rsp), %rcx
	movq	(%rcx), %rcx
	movq	%rcx, (%rax)
	movq	24(%rsp), %rcx
	movq	8(%rcx), %rcx
	movq	%rcx, 8(%rax)
	movq	8(%rsp), %rcx
	movq	(%rcx), %rcx
	movq	%rcx, 16(%rax)
	movq	8(%rsp), %rcx
	movq	8(%rcx), %rcx
	movq	%rcx, 24(%rax)
	movq	8(%rsp), %rcx
	movq	16(%rcx), %rcx
	movq	%rcx, 32(%rax)
	movq	8(%rsp), %rdx
	movq	24(%rdx), %rdx
	movq	%rdx, 40(%rax)
	movq	8(%rsp), %rdx
	movq	32(%rdx), %rdx
	movq	%rdx, 48(%rax)
	movq	8(%rsp), %rdx
	movq	40(%rdx), %rdx
	movq	%rdx, 56(%rax)
	movq	%rcx, 32(%rbx)
	movl	$64, %edi
	callq	_malloc
	movq	24(%rsp), %rcx
	movq	(%rcx), %rcx
	movq	%rcx, (%rax)
	movq	24(%rsp), %rcx
	movq	8(%rcx), %rcx
	movq	%rcx, 8(%rax)
	movq	8(%rsp), %rcx
	movq	(%rcx), %rcx
	movq	%rcx, 16(%rax)
	movq	8(%rsp), %rcx
	movq	8(%rcx), %rcx
	movq	%rcx, 24(%rax)
	movq	8(%rsp), %rcx
	movq	16(%rcx), %rcx
	movq	%rcx, 32(%rax)
	movq	8(%rsp), %rcx
	movq	24(%rcx), %rcx
	movq	%rcx, 40(%rax)
	movq	8(%rsp), %rdx
	movq	32(%rdx), %rdx
	movq	%rdx, 48(%rax)
	movq	8(%rsp), %rdx
	movq	40(%rdx), %rdx
	movq	%rdx, 56(%rax)
	movq	%rcx, 40(%rbx)
	movl	$64, %edi
	callq	_malloc
	movq	24(%rsp), %rcx
	movq	(%rcx), %rcx
	movq	%rcx, (%rax)
	movq	24(%rsp), %rcx
	movq	8(%rcx), %rcx
	movq	%rcx, 8(%rax)
	movq	8(%rsp), %rcx
	movq	(%rcx), %rcx
	movq	%rcx, 16(%rax)
	movq	8(%rsp), %rcx
	movq	8(%rcx), %rcx
	movq	%rcx, 24(%rax)
	movq	8(%rsp), %rcx
	movq	16(%rcx), %rcx
	movq	%rcx, 32(%rax)
	movq	8(%rsp), %rcx
	movq	24(%rcx), %rcx
	movq	%rcx, 40(%rax)
	movq	8(%rsp), %rcx
	movq	32(%rcx), %rcx
	movq	%rcx, 48(%rax)
	movq	8(%rsp), %rdx
	movq	40(%rdx), %rdx
	movq	%rdx, 56(%rax)
	movq	%rcx, 48(%rbx)
	movl	$64, %edi
	callq	_malloc
	movq	24(%rsp), %rcx
	movq	(%rcx), %rcx
	movq	%rcx, (%rax)
	movq	24(%rsp), %rcx
	movq	8(%rcx), %rcx
	movq	%rcx, 8(%rax)
	movq	8(%rsp), %rcx
	movq	(%rcx), %rcx
	movq	%rcx, 16(%rax)
	movq	8(%rsp), %rcx
	movq	8(%rcx), %rcx
	movq	%rcx, 24(%rax)
	movq	8(%rsp), %rcx
	movq	16(%rcx), %rcx
	movq	%rcx, 32(%rax)
	movq	8(%rsp), %rcx
	movq	24(%rcx), %rcx
	movq	%rcx, 40(%rax)
	movq	8(%rsp), %rcx
	movq	32(%rcx), %rcx
	movq	%rcx, 48(%rax)
	movq	8(%rsp), %rcx
	movq	40(%rcx), %rcx
	movq	%rcx, 56(%rax)
	movq	%rcx, 56(%rbx)
	movq	40(%rsp), %rax
	movq	(%rax), %rax
	movq	%rax, 64(%rbx)
	movq	40(%rsp), %rax
	movq	8(%rax), %rax
	movq	%rax, 72(%rbx)
	movq	40(%rsp), %rax
	movq	16(%rax), %rax
	movq	%rax, 80(%rbx)
	movq	40(%rsp), %rax
	movq	24(%rax), %rax
	movq	%rax, 88(%rbx)
	movq	40(%rsp), %rax
	movq	32(%rax), %rax
	movq	%rax, 96(%rbx)
	movq	40(%rbx), %rax
	movq	%rax, 40(%r15)
	movl	$104, %edi
	callq	_malloc
	movq	%rax, %rbx
	movl	$64, %edi
	callq	_malloc
	movq	24(%rsp), %rcx
	movq	(%rcx), %rcx
	movq	%rcx, (%rax)
	movq	24(%rsp), %rcx
	movq	8(%rcx), %rcx
	movq	%rcx, 8(%rax)
	movq	8(%rsp), %rcx
	movq	(%rcx), %rcx
	movq	%rcx, 16(%rax)
	movq	8(%rsp), %rcx
	movq	8(%rcx), %rcx
	movq	%rcx, 24(%rax)
	movq	8(%rsp), %rcx
	movq	16(%rcx), %rcx
	movq	%rcx, 32(%rax)
	movq	8(%rsp), %rcx
	movq	24(%rcx), %rcx
	movq	%rcx, 40(%rax)
	movq	8(%rsp), %rcx
	movq	32(%rcx), %rcx
	movq	%rcx, 48(%rax)
	movq	8(%rsp), %rcx
	movq	40(%rcx), %rcx
	movq	%rcx, 56(%rax)
	movq	(%rax), %rax
	movq	%rax, (%rbx)
	movl	$64, %edi
	callq	_malloc
	movq	24(%rsp), %rcx
	movq	(%rcx), %rcx
	movq	%rcx, (%rax)
	movq	24(%rsp), %rcx
	movq	8(%rcx), %rcx
	movq	%rcx, 8(%rax)
	movq	8(%rsp), %rcx
	movq	(%rcx), %rcx
	movq	%rcx, 16(%rax)
	movq	8(%rsp), %rcx
	movq	8(%rcx), %rcx
	movq	%rcx, 24(%rax)
	movq	8(%rsp), %rcx
	movq	16(%rcx), %rcx
	movq	%rcx, 32(%rax)
	movq	8(%rsp), %rcx
	movq	24(%rcx), %rcx
	movq	%rcx, 40(%rax)
	movq	8(%rsp), %rcx
	movq	32(%rcx), %rcx
	movq	%rcx, 48(%rax)
	movq	8(%rsp), %rcx
	movq	40(%rcx), %rcx
	movq	%rcx, 56(%rax)
	movq	8(%rax), %rax
	movq	%rax, 8(%rbx)
	movl	$64, %edi
	callq	_malloc
	movq	24(%rsp), %rcx
	movq	(%rcx), %rcx
	movq	%rcx, (%rax)
	movq	24(%rsp), %rcx
	movq	8(%rcx), %rcx
	movq	%rcx, 8(%rax)
	movq	8(%rsp), %rcx
	movq	(%rcx), %rcx
	movq	%rcx, 16(%rax)
	movq	8(%rsp), %rcx
	movq	8(%rcx), %rcx
	movq	%rcx, 24(%rax)
	movq	8(%rsp), %rcx
	movq	16(%rcx), %rcx
	movq	%rcx, 32(%rax)
	movq	8(%rsp), %rcx
	movq	24(%rcx), %rcx
	movq	%rcx, 40(%rax)
	movq	8(%rsp), %rcx
	movq	32(%rcx), %rcx
	movq	%rcx, 48(%rax)
	movq	8(%rsp), %rcx
	movq	40(%rcx), %rcx
	movq	%rcx, 56(%rax)
	movq	16(%rax), %rax
	movq	%rax, 16(%rbx)
	movl	$64, %edi
	callq	_malloc
	movq	24(%rsp), %rcx
	movq	(%rcx), %rcx
	movq	%rcx, (%rax)
	movq	24(%rsp), %rcx
	movq	8(%rcx), %rcx
	movq	%rcx, 8(%rax)
	movq	8(%rsp), %rcx
	movq	(%rcx), %rcx
	movq	%rcx, 16(%rax)
	movq	8(%rsp), %rcx
	movq	8(%rcx), %rcx
	movq	%rcx, 24(%rax)
	movq	8(%rsp), %rdx
	movq	16(%rdx), %rdx
	movq	%rdx, 32(%rax)
	movq	8(%rsp), %rdx
	movq	24(%rdx), %rdx
	movq	%rdx, 40(%rax)
	movq	8(%rsp), %rdx
	movq	32(%rdx), %rdx
	movq	%rdx, 48(%rax)
	movq	8(%rsp), %rdx
	movq	40(%rdx), %rdx
	movq	%rdx, 56(%rax)
	movq	%rcx, 24(%rbx)
	movl	$64, %edi
	callq	_malloc
	movq	24(%rsp), %rcx
	movq	(%rcx), %rcx
	movq	%rcx, (%rax)
	movq	24(%rsp), %rcx
	movq	8(%rcx), %rcx
	movq	%rcx, 8(%rax)
	movq	8(%rsp), %rcx
	movq	(%rcx), %rcx
	movq	%rcx, 16(%rax)
	movq	8(%rsp), %rcx
	movq	8(%rcx), %rcx
	movq	%rcx, 24(%rax)
	movq	8(%rsp), %rcx
	movq	16(%rcx), %rcx
	movq	%rcx, 32(%rax)
	movq	8(%rsp), %rdx
	movq	24(%rdx), %rdx
	movq	%rdx, 40(%rax)
	movq	8(%rsp), %rdx
	movq	32(%rdx), %rdx
	movq	%rdx, 48(%rax)
	movq	8(%rsp), %rdx
	movq	40(%rdx), %rdx
	movq	%rdx, 56(%rax)
	movq	%rcx, 32(%rbx)
	movl	$64, %edi
	callq	_malloc
	movq	24(%rsp), %rcx
	movq	(%rcx), %rcx
	movq	%rcx, (%rax)
	movq	24(%rsp), %rcx
	movq	8(%rcx), %rcx
	movq	%rcx, 8(%rax)
	movq	8(%rsp), %rcx
	movq	(%rcx), %rcx
	movq	%rcx, 16(%rax)
	movq	8(%rsp), %rcx
	movq	8(%rcx), %rcx
	movq	%rcx, 24(%rax)
	movq	8(%rsp), %rcx
	movq	16(%rcx), %rcx
	movq	%rcx, 32(%rax)
	movq	8(%rsp), %rcx
	movq	24(%rcx), %rcx
	movq	%rcx, 40(%rax)
	movq	8(%rsp), %rdx
	movq	32(%rdx), %rdx
	movq	%rdx, 48(%rax)
	movq	8(%rsp), %rdx
	movq	40(%rdx), %rdx
	movq	%rdx, 56(%rax)
	movq	%rcx, 40(%rbx)
	movl	$64, %edi
	callq	_malloc
	movq	24(%rsp), %rcx
	movq	(%rcx), %rcx
	movq	%rcx, (%rax)
	movq	24(%rsp), %rcx
	movq	8(%rcx), %rcx
	movq	%rcx, 8(%rax)
	movq	8(%rsp), %rcx
	movq	(%rcx), %rcx
	movq	%rcx, 16(%rax)
	movq	8(%rsp), %rcx
	movq	8(%rcx), %rcx
	movq	%rcx, 24(%rax)
	movq	8(%rsp), %rcx
	movq	16(%rcx), %rcx
	movq	%rcx, 32(%rax)
	movq	8(%rsp), %rcx
	movq	24(%rcx), %rcx
	movq	%rcx, 40(%rax)
	movq	8(%rsp), %rcx
	movq	32(%rcx), %rcx
	movq	%rcx, 48(%rax)
	movq	8(%rsp), %rdx
	movq	40(%rdx), %rdx
	movq	%rdx, 56(%rax)
	movq	%rcx, 48(%rbx)
	movl	$64, %edi
	callq	_malloc
	movq	24(%rsp), %rcx
	movq	(%rcx), %rcx
	movq	%rcx, (%rax)
	movq	24(%rsp), %rcx
	movq	8(%rcx), %rcx
	movq	%rcx, 8(%rax)
	movq	8(%rsp), %rcx
	movq	(%rcx), %rcx
	movq	%rcx, 16(%rax)
	movq	8(%rsp), %rcx
	movq	8(%rcx), %rcx
	movq	%rcx, 24(%rax)
	movq	8(%rsp), %rcx
	movq	16(%rcx), %rcx
	movq	%rcx, 32(%rax)
	movq	8(%rsp), %rcx
	movq	24(%rcx), %rcx
	movq	%rcx, 40(%rax)
	movq	8(%rsp), %rcx
	movq	32(%rcx), %rcx
	movq	%rcx, 48(%rax)
	movq	8(%rsp), %rcx
	movq	40(%rcx), %rcx
	movq	%rcx, 56(%rax)
	movq	%rcx, 56(%rbx)
	movq	40(%rsp), %rax
	movq	(%rax), %rax
	movq	%rax, 64(%rbx)
	movq	40(%rsp), %rax
	movq	8(%rax), %rax
	movq	%rax, 72(%rbx)
	movq	40(%rsp), %rax
	movq	16(%rax), %rax
	movq	%rax, 80(%rbx)
	movq	40(%rsp), %rax
	movq	24(%rax), %rax
	movq	%rax, 88(%rbx)
	movq	40(%rsp), %rax
	movq	32(%rax), %rax
	movq	%rax, 96(%rbx)
	movq	48(%rbx), %rax
	movq	%rax, 48(%r15)
	movl	$104, %edi
	callq	_malloc
	movq	%rax, %rbx
	movl	$64, %edi
	callq	_malloc
	movq	24(%rsp), %rcx
	movq	(%rcx), %rcx
	movq	%rcx, (%rax)
	movq	24(%rsp), %rcx
	movq	8(%rcx), %rcx
	movq	%rcx, 8(%rax)
	movq	8(%rsp), %rcx
	movq	(%rcx), %rcx
	movq	%rcx, 16(%rax)
	movq	8(%rsp), %rcx
	movq	8(%rcx), %rcx
	movq	%rcx, 24(%rax)
	movq	8(%rsp), %rcx
	movq	16(%rcx), %rcx
	movq	%rcx, 32(%rax)
	movq	8(%rsp), %rcx
	movq	24(%rcx), %rcx
	movq	%rcx, 40(%rax)
	movq	8(%rsp), %rcx
	movq	32(%rcx), %rcx
	movq	%rcx, 48(%rax)
	movq	8(%rsp), %rcx
	movq	40(%rcx), %rcx
	movq	%rcx, 56(%rax)
	movq	(%rax), %rax
	movq	%rax, (%rbx)
	movl	$64, %edi
	callq	_malloc
	movq	24(%rsp), %rcx
	movq	(%rcx), %rcx
	movq	%rcx, (%rax)
	movq	24(%rsp), %rcx
	movq	8(%rcx), %rcx
	movq	%rcx, 8(%rax)
	movq	8(%rsp), %rcx
	movq	(%rcx), %rcx
	movq	%rcx, 16(%rax)
	movq	8(%rsp), %rcx
	movq	8(%rcx), %rcx
	movq	%rcx, 24(%rax)
	movq	8(%rsp), %rcx
	movq	16(%rcx), %rcx
	movq	%rcx, 32(%rax)
	movq	8(%rsp), %rcx
	movq	24(%rcx), %rcx
	movq	%rcx, 40(%rax)
	movq	8(%rsp), %rcx
	movq	32(%rcx), %rcx
	movq	%rcx, 48(%rax)
	movq	8(%rsp), %rcx
	movq	40(%rcx), %rcx
	movq	%rcx, 56(%rax)
	movq	8(%rax), %rax
	movq	%rax, 8(%rbx)
	movl	$64, %edi
	callq	_malloc
	movq	24(%rsp), %rcx
	movq	(%rcx), %rcx
	movq	%rcx, (%rax)
	movq	24(%rsp), %rcx
	movq	8(%rcx), %rcx
	movq	%rcx, 8(%rax)
	movq	8(%rsp), %rcx
	movq	(%rcx), %rcx
	movq	%rcx, 16(%rax)
	movq	8(%rsp), %rcx
	movq	8(%rcx), %rcx
	movq	%rcx, 24(%rax)
	movq	8(%rsp), %rcx
	movq	16(%rcx), %rcx
	movq	%rcx, 32(%rax)
	movq	8(%rsp), %rcx
	movq	24(%rcx), %rcx
	movq	%rcx, 40(%rax)
	movq	8(%rsp), %rcx
	movq	32(%rcx), %rcx
	movq	%rcx, 48(%rax)
	movq	8(%rsp), %rcx
	movq	40(%rcx), %rcx
	movq	%rcx, 56(%rax)
	movq	16(%rax), %rax
	movq	%rax, 16(%rbx)
	movl	$64, %edi
	callq	_malloc
	movq	24(%rsp), %rcx
	movq	(%rcx), %rcx
	movq	%rcx, (%rax)
	movq	24(%rsp), %rcx
	movq	8(%rcx), %rcx
	movq	%rcx, 8(%rax)
	movq	8(%rsp), %rcx
	movq	(%rcx), %rcx
	movq	%rcx, 16(%rax)
	movq	8(%rsp), %rcx
	movq	8(%rcx), %rcx
	movq	%rcx, 24(%rax)
	movq	8(%rsp), %rdx
	movq	16(%rdx), %rdx
	movq	%rdx, 32(%rax)
	movq	8(%rsp), %rdx
	movq	24(%rdx), %rdx
	movq	%rdx, 40(%rax)
	movq	8(%rsp), %rdx
	movq	32(%rdx), %rdx
	movq	%rdx, 48(%rax)
	movq	8(%rsp), %rdx
	movq	40(%rdx), %rdx
	movq	%rdx, 56(%rax)
	movq	%rcx, 24(%rbx)
	movl	$64, %edi
	callq	_malloc
	movq	24(%rsp), %rcx
	movq	(%rcx), %rcx
	movq	%rcx, (%rax)
	movq	24(%rsp), %rcx
	movq	8(%rcx), %rcx
	movq	%rcx, 8(%rax)
	movq	8(%rsp), %rcx
	movq	(%rcx), %rcx
	movq	%rcx, 16(%rax)
	movq	8(%rsp), %rcx
	movq	8(%rcx), %rcx
	movq	%rcx, 24(%rax)
	movq	8(%rsp), %rcx
	movq	16(%rcx), %rcx
	movq	%rcx, 32(%rax)
	movq	8(%rsp), %rdx
	movq	24(%rdx), %rdx
	movq	%rdx, 40(%rax)
	movq	8(%rsp), %rdx
	movq	32(%rdx), %rdx
	movq	%rdx, 48(%rax)
	movq	8(%rsp), %rdx
	movq	40(%rdx), %rdx
	movq	%rdx, 56(%rax)
	movq	%rcx, 32(%rbx)
	movl	$64, %edi
	callq	_malloc
	movq	24(%rsp), %rcx
	movq	(%rcx), %rcx
	movq	%rcx, (%rax)
	movq	24(%rsp), %rcx
	movq	8(%rcx), %rcx
	movq	%rcx, 8(%rax)
	movq	8(%rsp), %rcx
	movq	(%rcx), %rcx
	movq	%rcx, 16(%rax)
	movq	8(%rsp), %rcx
	movq	8(%rcx), %rcx
	movq	%rcx, 24(%rax)
	movq	8(%rsp), %rcx
	movq	16(%rcx), %rcx
	movq	%rcx, 32(%rax)
	movq	8(%rsp), %rcx
	movq	24(%rcx), %rcx
	movq	%rcx, 40(%rax)
	movq	8(%rsp), %rdx
	movq	32(%rdx), %rdx
	movq	%rdx, 48(%rax)
	movq	8(%rsp), %rdx
	movq	40(%rdx), %rdx
	movq	%rdx, 56(%rax)
	movq	%rcx, 40(%rbx)
	movl	$64, %edi
	callq	_malloc
	movq	24(%rsp), %rcx
	movq	(%rcx), %rcx
	movq	%rcx, (%rax)
	movq	24(%rsp), %rcx
	movq	8(%rcx), %rcx
	movq	%rcx, 8(%rax)
	movq	8(%rsp), %rcx
	movq	(%rcx), %rcx
	movq	%rcx, 16(%rax)
	movq	8(%rsp), %rcx
	movq	8(%rcx), %rcx
	movq	%rcx, 24(%rax)
	movq	8(%rsp), %rcx
	movq	16(%rcx), %rcx
	movq	%rcx, 32(%rax)
	movq	8(%rsp), %rcx
	movq	24(%rcx), %rcx
	movq	%rcx, 40(%rax)
	movq	8(%rsp), %rcx
	movq	32(%rcx), %rcx
	movq	%rcx, 48(%rax)
	movq	8(%rsp), %rdx
	movq	40(%rdx), %rdx
	movq	%rdx, 56(%rax)
	movq	%rcx, 48(%rbx)
	movl	$64, %edi
	callq	_malloc
	movq	24(%rsp), %rcx
	movq	(%rcx), %rcx
	movq	%rcx, (%rax)
	movq	24(%rsp), %rcx
	movq	8(%rcx), %rcx
	movq	%rcx, 8(%rax)
	movq	8(%rsp), %rcx
	movq	(%rcx), %rcx
	movq	%rcx, 16(%rax)
	movq	8(%rsp), %rcx
	movq	8(%rcx), %rcx
	movq	%rcx, 24(%rax)
	movq	8(%rsp), %rcx
	movq	16(%rcx), %rcx
	movq	%rcx, 32(%rax)
	movq	8(%rsp), %rcx
	movq	24(%rcx), %rcx
	movq	%rcx, 40(%rax)
	movq	8(%rsp), %rcx
	movq	32(%rcx), %rcx
	movq	%rcx, 48(%rax)
	movq	8(%rsp), %rcx
	movq	40(%rcx), %rcx
	movq	%rcx, 56(%rax)
	movq	%rcx, 56(%rbx)
	movq	40(%rsp), %rax
	movq	(%rax), %rax
	movq	%rax, 64(%rbx)
	movq	40(%rsp), %rax
	movq	8(%rax), %rax
	movq	%rax, 72(%rbx)
	movq	40(%rsp), %rax
	movq	16(%rax), %rax
	movq	%rax, 80(%rbx)
	movq	40(%rsp), %rax
	movq	24(%rax), %rax
	movq	%rax, 88(%rbx)
	movq	40(%rsp), %rax
	movq	32(%rax), %rax
	movq	%rax, 96(%rbx)
	movq	56(%rbx), %rax
	movq	%rax, 56(%r15)
	movl	$104, %edi
	callq	_malloc
	movq	%rax, %rbx
	movl	$64, %edi
	callq	_malloc
	movq	24(%rsp), %rcx
	movq	(%rcx), %rcx
	movq	%rcx, (%rax)
	movq	24(%rsp), %rcx
	movq	8(%rcx), %rcx
	movq	%rcx, 8(%rax)
	movq	8(%rsp), %rcx
	movq	(%rcx), %rcx
	movq	%rcx, 16(%rax)
	movq	8(%rsp), %rcx
	movq	8(%rcx), %rcx
	movq	%rcx, 24(%rax)
	movq	8(%rsp), %rcx
	movq	16(%rcx), %rcx
	movq	%rcx, 32(%rax)
	movq	8(%rsp), %rcx
	movq	24(%rcx), %rcx
	movq	%rcx, 40(%rax)
	movq	8(%rsp), %rcx
	movq	32(%rcx), %rcx
	movq	%rcx, 48(%rax)
	movq	8(%rsp), %rcx
	movq	40(%rcx), %rcx
	movq	%rcx, 56(%rax)
	movq	(%rax), %rax
	movq	%rax, (%rbx)
	movl	$64, %edi
	callq	_malloc
	movq	24(%rsp), %rcx
	movq	(%rcx), %rcx
	movq	%rcx, (%rax)
	movq	24(%rsp), %rcx
	movq	8(%rcx), %rcx
	movq	%rcx, 8(%rax)
	movq	8(%rsp), %rcx
	movq	(%rcx), %rcx
	movq	%rcx, 16(%rax)
	movq	8(%rsp), %rcx
	movq	8(%rcx), %rcx
	movq	%rcx, 24(%rax)
	movq	8(%rsp), %rcx
	movq	16(%rcx), %rcx
	movq	%rcx, 32(%rax)
	movq	8(%rsp), %rcx
	movq	24(%rcx), %rcx
	movq	%rcx, 40(%rax)
	movq	8(%rsp), %rcx
	movq	32(%rcx), %rcx
	movq	%rcx, 48(%rax)
	movq	8(%rsp), %rcx
	movq	40(%rcx), %rcx
	movq	%rcx, 56(%rax)
	movq	8(%rax), %rax
	movq	%rax, 8(%rbx)
	movl	$64, %edi
	callq	_malloc
	movq	24(%rsp), %rcx
	movq	(%rcx), %rcx
	movq	%rcx, (%rax)
	movq	24(%rsp), %rcx
	movq	8(%rcx), %rcx
	movq	%rcx, 8(%rax)
	movq	8(%rsp), %rcx
	movq	(%rcx), %rcx
	movq	%rcx, 16(%rax)
	movq	8(%rsp), %rcx
	movq	8(%rcx), %rcx
	movq	%rcx, 24(%rax)
	movq	8(%rsp), %rcx
	movq	16(%rcx), %rcx
	movq	%rcx, 32(%rax)
	movq	8(%rsp), %rcx
	movq	24(%rcx), %rcx
	movq	%rcx, 40(%rax)
	movq	8(%rsp), %rcx
	movq	32(%rcx), %rcx
	movq	%rcx, 48(%rax)
	movq	8(%rsp), %rcx
	movq	40(%rcx), %rcx
	movq	%rcx, 56(%rax)
	movq	16(%rax), %rax
	movq	%rax, 16(%rbx)
	movl	$64, %edi
	callq	_malloc
	movq	24(%rsp), %rcx
	movq	(%rcx), %rcx
	movq	%rcx, (%rax)
	movq	24(%rsp), %rcx
	movq	8(%rcx), %rcx
	movq	%rcx, 8(%rax)
	movq	8(%rsp), %rcx
	movq	(%rcx), %rcx
	movq	%rcx, 16(%rax)
	movq	8(%rsp), %rcx
	movq	8(%rcx), %rcx
	movq	%rcx, 24(%rax)
	movq	8(%rsp), %rdx
	movq	16(%rdx), %rdx
	movq	%rdx, 32(%rax)
	movq	8(%rsp), %rdx
	movq	24(%rdx), %rdx
	movq	%rdx, 40(%rax)
	movq	8(%rsp), %rdx
	movq	32(%rdx), %rdx
	movq	%rdx, 48(%rax)
	movq	8(%rsp), %rdx
	movq	40(%rdx), %rdx
	movq	%rdx, 56(%rax)
	movq	%rcx, 24(%rbx)
	movl	$64, %edi
	callq	_malloc
	movq	24(%rsp), %rcx
	movq	(%rcx), %rcx
	movq	%rcx, (%rax)
	movq	24(%rsp), %rcx
	movq	8(%rcx), %rcx
	movq	%rcx, 8(%rax)
	movq	8(%rsp), %rcx
	movq	(%rcx), %rcx
	movq	%rcx, 16(%rax)
	movq	8(%rsp), %rcx
	movq	8(%rcx), %rcx
	movq	%rcx, 24(%rax)
	movq	8(%rsp), %rcx
	movq	16(%rcx), %rcx
	movq	%rcx, 32(%rax)
	movq	8(%rsp), %rdx
	movq	24(%rdx), %rdx
	movq	%rdx, 40(%rax)
	movq	8(%rsp), %rdx
	movq	32(%rdx), %rdx
	movq	%rdx, 48(%rax)
	movq	8(%rsp), %rdx
	movq	40(%rdx), %rdx
	movq	%rdx, 56(%rax)
	movq	%rcx, 32(%rbx)
	movl	$64, %edi
	callq	_malloc
	movq	24(%rsp), %rcx
	movq	(%rcx), %rcx
	movq	%rcx, (%rax)
	movq	24(%rsp), %rcx
	movq	8(%rcx), %rcx
	movq	%rcx, 8(%rax)
	movq	8(%rsp), %rcx
	movq	(%rcx), %rcx
	movq	%rcx, 16(%rax)
	movq	8(%rsp), %rcx
	movq	8(%rcx), %rcx
	movq	%rcx, 24(%rax)
	movq	8(%rsp), %rcx
	movq	16(%rcx), %rcx
	movq	%rcx, 32(%rax)
	movq	8(%rsp), %rcx
	movq	24(%rcx), %rcx
	movq	%rcx, 40(%rax)
	movq	8(%rsp), %rdx
	movq	32(%rdx), %rdx
	movq	%rdx, 48(%rax)
	movq	8(%rsp), %rdx
	movq	40(%rdx), %rdx
	movq	%rdx, 56(%rax)
	movq	%rcx, 40(%rbx)
	movl	$64, %edi
	callq	_malloc
	movq	24(%rsp), %rcx
	movq	(%rcx), %rcx
	movq	%rcx, (%rax)
	movq	24(%rsp), %rcx
	movq	8(%rcx), %rcx
	movq	%rcx, 8(%rax)
	movq	8(%rsp), %rcx
	movq	(%rcx), %rcx
	movq	%rcx, 16(%rax)
	movq	8(%rsp), %rcx
	movq	8(%rcx), %rcx
	movq	%rcx, 24(%rax)
	movq	8(%rsp), %rcx
	movq	16(%rcx), %rcx
	movq	%rcx, 32(%rax)
	movq	8(%rsp), %rcx
	movq	24(%rcx), %rcx
	movq	%rcx, 40(%rax)
	movq	8(%rsp), %rcx
	movq	32(%rcx), %rcx
	movq	%rcx, 48(%rax)
	movq	8(%rsp), %rdx
	movq	40(%rdx), %rdx
	movq	%rdx, 56(%rax)
	movq	%rcx, 48(%rbx)
	movl	$64, %edi
	callq	_malloc
	movq	24(%rsp), %rcx
	movq	(%rcx), %rcx
	movq	%rcx, (%rax)
	movq	24(%rsp), %rcx
	movq	8(%rcx), %rcx
	movq	%rcx, 8(%rax)
	movq	8(%rsp), %rcx
	movq	(%rcx), %rcx
	movq	%rcx, 16(%rax)
	movq	8(%rsp), %rcx
	movq	8(%rcx), %rcx
	movq	%rcx, 24(%rax)
	movq	8(%rsp), %rcx
	movq	16(%rcx), %rcx
	movq	%rcx, 32(%rax)
	movq	8(%rsp), %rcx
	movq	24(%rcx), %rcx
	movq	%rcx, 40(%rax)
	movq	8(%rsp), %rcx
	movq	32(%rcx), %rcx
	movq	%rcx, 48(%rax)
	movq	8(%rsp), %rcx
	movq	40(%rcx), %rcx
	movq	%rcx, 56(%rax)
	movq	%rcx, 56(%rbx)
	movq	40(%rsp), %rax
	movq	(%rax), %rax
	movq	%rax, 64(%rbx)
	movq	40(%rsp), %rcx
	movq	8(%rcx), %rcx
	movq	%rcx, 72(%rbx)
	movq	40(%rsp), %rcx
	movq	16(%rcx), %rcx
	movq	%rcx, 80(%rbx)
	movq	40(%rsp), %rcx
	movq	24(%rcx), %rcx
	movq	%rcx, 88(%rbx)
	movq	40(%rsp), %rcx
	movq	32(%rcx), %rcx
	movq	%rcx, 96(%rbx)
	movq	%rax, 64(%r15)
	movl	$104, %edi
	callq	_malloc
	movq	%rax, %rbx
	movl	$64, %edi
	callq	_malloc
	movq	24(%rsp), %rcx
	movq	(%rcx), %rcx
	movq	%rcx, (%rax)
	movq	24(%rsp), %rcx
	movq	8(%rcx), %rcx
	movq	%rcx, 8(%rax)
	movq	8(%rsp), %rcx
	movq	(%rcx), %rcx
	movq	%rcx, 16(%rax)
	movq	8(%rsp), %rcx
	movq	8(%rcx), %rcx
	movq	%rcx, 24(%rax)
	movq	8(%rsp), %rcx
	movq	16(%rcx), %rcx
	movq	%rcx, 32(%rax)
	movq	8(%rsp), %rcx
	movq	24(%rcx), %rcx
	movq	%rcx, 40(%rax)
	movq	8(%rsp), %rcx
	movq	32(%rcx), %rcx
	movq	%rcx, 48(%rax)
	movq	8(%rsp), %rcx
	movq	40(%rcx), %rcx
	movq	%rcx, 56(%rax)
	movq	(%rax), %rax
	movq	%rax, (%rbx)
	movl	$64, %edi
	callq	_malloc
	movq	24(%rsp), %rcx
	movq	(%rcx), %rcx
	movq	%rcx, (%rax)
	movq	24(%rsp), %rcx
	movq	8(%rcx), %rcx
	movq	%rcx, 8(%rax)
	movq	8(%rsp), %rcx
	movq	(%rcx), %rcx
	movq	%rcx, 16(%rax)
	movq	8(%rsp), %rcx
	movq	8(%rcx), %rcx
	movq	%rcx, 24(%rax)
	movq	8(%rsp), %rcx
	movq	16(%rcx), %rcx
	movq	%rcx, 32(%rax)
	movq	8(%rsp), %rcx
	movq	24(%rcx), %rcx
	movq	%rcx, 40(%rax)
	movq	8(%rsp), %rcx
	movq	32(%rcx), %rcx
	movq	%rcx, 48(%rax)
	movq	8(%rsp), %rcx
	movq	40(%rcx), %rcx
	movq	%rcx, 56(%rax)
	movq	8(%rax), %rax
	movq	%rax, 8(%rbx)
	movl	$64, %edi
	callq	_malloc
	movq	24(%rsp), %rcx
	movq	(%rcx), %rcx
	movq	%rcx, (%rax)
	movq	24(%rsp), %rcx
	movq	8(%rcx), %rcx
	movq	%rcx, 8(%rax)
	movq	8(%rsp), %rcx
	movq	(%rcx), %rcx
	movq	%rcx, 16(%rax)
	movq	8(%rsp), %rcx
	movq	8(%rcx), %rcx
	movq	%rcx, 24(%rax)
	movq	8(%rsp), %rcx
	movq	16(%rcx), %rcx
	movq	%rcx, 32(%rax)
	movq	8(%rsp), %rcx
	movq	24(%rcx), %rcx
	movq	%rcx, 40(%rax)
	movq	8(%rsp), %rcx
	movq	32(%rcx), %rcx
	movq	%rcx, 48(%rax)
	movq	8(%rsp), %rcx
	movq	40(%rcx), %rcx
	movq	%rcx, 56(%rax)
	movq	16(%rax), %rax
	movq	%rax, 16(%rbx)
	movl	$64, %edi
	callq	_malloc
	movq	24(%rsp), %rcx
	movq	(%rcx), %rcx
	movq	%rcx, (%rax)
	movq	24(%rsp), %rcx
	movq	8(%rcx), %rcx
	movq	%rcx, 8(%rax)
	movq	8(%rsp), %rcx
	movq	(%rcx), %rcx
	movq	%rcx, 16(%rax)
	movq	8(%rsp), %rcx
	movq	8(%rcx), %rcx
	movq	%rcx, 24(%rax)
	movq	8(%rsp), %rdx
	movq	16(%rdx), %rdx
	movq	%rdx, 32(%rax)
	movq	8(%rsp), %rdx
	movq	24(%rdx), %rdx
	movq	%rdx, 40(%rax)
	movq	8(%rsp), %rdx
	movq	32(%rdx), %rdx
	movq	%rdx, 48(%rax)
	movq	8(%rsp), %rdx
	movq	40(%rdx), %rdx
	movq	%rdx, 56(%rax)
	movq	%rcx, 24(%rbx)
	movl	$64, %edi
	callq	_malloc
	movq	24(%rsp), %rcx
	movq	(%rcx), %rcx
	movq	%rcx, (%rax)
	movq	24(%rsp), %rcx
	movq	8(%rcx), %rcx
	movq	%rcx, 8(%rax)
	movq	8(%rsp), %rcx
	movq	(%rcx), %rcx
	movq	%rcx, 16(%rax)
	movq	8(%rsp), %rcx
	movq	8(%rcx), %rcx
	movq	%rcx, 24(%rax)
	movq	8(%rsp), %rcx
	movq	16(%rcx), %rcx
	movq	%rcx, 32(%rax)
	movq	8(%rsp), %rdx
	movq	24(%rdx), %rdx
	movq	%rdx, 40(%rax)
	movq	8(%rsp), %rdx
	movq	32(%rdx), %rdx
	movq	%rdx, 48(%rax)
	movq	8(%rsp), %rdx
	movq	40(%rdx), %rdx
	movq	%rdx, 56(%rax)
	movq	%rcx, 32(%rbx)
	movl	$64, %edi
	callq	_malloc
	movq	24(%rsp), %rcx
	movq	(%rcx), %rcx
	movq	%rcx, (%rax)
	movq	24(%rsp), %rcx
	movq	8(%rcx), %rcx
	movq	%rcx, 8(%rax)
	movq	8(%rsp), %rcx
	movq	(%rcx), %rcx
	movq	%rcx, 16(%rax)
	movq	8(%rsp), %rcx
	movq	8(%rcx), %rcx
	movq	%rcx, 24(%rax)
	movq	8(%rsp), %rcx
	movq	16(%rcx), %rcx
	movq	%rcx, 32(%rax)
	movq	8(%rsp), %rcx
	movq	24(%rcx), %rcx
	movq	%rcx, 40(%rax)
	movq	8(%rsp), %rdx
	movq	32(%rdx), %rdx
	movq	%rdx, 48(%rax)
	movq	8(%rsp), %rdx
	movq	40(%rdx), %rdx
	movq	%rdx, 56(%rax)
	movq	%rcx, 40(%rbx)
	movl	$64, %edi
	callq	_malloc
	movq	24(%rsp), %rcx
	movq	(%rcx), %rcx
	movq	%rcx, (%rax)
	movq	24(%rsp), %rcx
	movq	8(%rcx), %rcx
	movq	%rcx, 8(%rax)
	movq	8(%rsp), %rcx
	movq	(%rcx), %rcx
	movq	%rcx, 16(%rax)
	movq	8(%rsp), %rcx
	movq	8(%rcx), %rcx
	movq	%rcx, 24(%rax)
	movq	8(%rsp), %rcx
	movq	16(%rcx), %rcx
	movq	%rcx, 32(%rax)
	movq	8(%rsp), %rcx
	movq	24(%rcx), %rcx
	movq	%rcx, 40(%rax)
	movq	8(%rsp), %rcx
	movq	32(%rcx), %rcx
	movq	%rcx, 48(%rax)
	movq	8(%rsp), %rdx
	movq	40(%rdx), %rdx
	movq	%rdx, 56(%rax)
	movq	%rcx, 48(%rbx)
	movl	$64, %edi
	callq	_malloc
	movq	24(%rsp), %rcx
	movq	(%rcx), %rcx
	movq	%rcx, (%rax)
	movq	24(%rsp), %rcx
	movq	8(%rcx), %rcx
	movq	%rcx, 8(%rax)
	movq	8(%rsp), %rcx
	movq	(%rcx), %rcx
	movq	%rcx, 16(%rax)
	movq	8(%rsp), %rcx
	movq	8(%rcx), %rcx
	movq	%rcx, 24(%rax)
	movq	8(%rsp), %rcx
	movq	16(%rcx), %rcx
	movq	%rcx, 32(%rax)
	movq	8(%rsp), %rcx
	movq	24(%rcx), %rcx
	movq	%rcx, 40(%rax)
	movq	8(%rsp), %rcx
	movq	32(%rcx), %rcx
	movq	%rcx, 48(%rax)
	movq	8(%rsp), %rcx
	movq	40(%rcx), %rcx
	movq	%rcx, 56(%rax)
	movq	%rcx, 56(%rbx)
	movq	40(%rsp), %rax
	movq	(%rax), %rax
	movq	%rax, 64(%rbx)
	movq	40(%rsp), %rax
	movq	8(%rax), %rax
	movq	%rax, 72(%rbx)
	movq	40(%rsp), %rcx
	movq	16(%rcx), %rcx
	movq	%rcx, 80(%rbx)
	movq	40(%rsp), %rcx
	movq	24(%rcx), %rcx
	movq	%rcx, 88(%rbx)
	movq	40(%rsp), %rcx
	movq	32(%rcx), %rcx
	movq	%rcx, 96(%rbx)
	movq	%rax, 72(%r15)
	movl	$104, %edi
	callq	_malloc
	movq	%rax, %rbx
	movl	$64, %edi
	callq	_malloc
	movq	24(%rsp), %rcx
	movq	(%rcx), %rcx
	movq	%rcx, (%rax)
	movq	24(%rsp), %rcx
	movq	8(%rcx), %rcx
	movq	%rcx, 8(%rax)
	movq	8(%rsp), %rcx
	movq	(%rcx), %rcx
	movq	%rcx, 16(%rax)
	movq	8(%rsp), %rcx
	movq	8(%rcx), %rcx
	movq	%rcx, 24(%rax)
	movq	8(%rsp), %rcx
	movq	16(%rcx), %rcx
	movq	%rcx, 32(%rax)
	movq	8(%rsp), %rcx
	movq	24(%rcx), %rcx
	movq	%rcx, 40(%rax)
	movq	8(%rsp), %rcx
	movq	32(%rcx), %rcx
	movq	%rcx, 48(%rax)
	movq	8(%rsp), %rcx
	movq	40(%rcx), %rcx
	movq	%rcx, 56(%rax)
	movq	(%rax), %rax
	movq	%rax, (%rbx)
	movl	$64, %edi
	callq	_malloc
	movq	24(%rsp), %rcx
	movq	(%rcx), %rcx
	movq	%rcx, (%rax)
	movq	24(%rsp), %rcx
	movq	8(%rcx), %rcx
	movq	%rcx, 8(%rax)
	movq	8(%rsp), %rcx
	movq	(%rcx), %rcx
	movq	%rcx, 16(%rax)
	movq	8(%rsp), %rcx
	movq	8(%rcx), %rcx
	movq	%rcx, 24(%rax)
	movq	8(%rsp), %rcx
	movq	16(%rcx), %rcx
	movq	%rcx, 32(%rax)
	movq	8(%rsp), %rcx
	movq	24(%rcx), %rcx
	movq	%rcx, 40(%rax)
	movq	8(%rsp), %rcx
	movq	32(%rcx), %rcx
	movq	%rcx, 48(%rax)
	movq	8(%rsp), %rcx
	movq	40(%rcx), %rcx
	movq	%rcx, 56(%rax)
	movq	8(%rax), %rax
	movq	%rax, 8(%rbx)
	movl	$64, %edi
	callq	_malloc
	movq	24(%rsp), %rcx
	movq	(%rcx), %rcx
	movq	%rcx, (%rax)
	movq	24(%rsp), %rcx
	movq	8(%rcx), %rcx
	movq	%rcx, 8(%rax)
	movq	8(%rsp), %rcx
	movq	(%rcx), %rcx
	movq	%rcx, 16(%rax)
	movq	8(%rsp), %rcx
	movq	8(%rcx), %rcx
	movq	%rcx, 24(%rax)
	movq	8(%rsp), %rcx
	movq	16(%rcx), %rcx
	movq	%rcx, 32(%rax)
	movq	8(%rsp), %rcx
	movq	24(%rcx), %rcx
	movq	%rcx, 40(%rax)
	movq	8(%rsp), %rcx
	movq	32(%rcx), %rcx
	movq	%rcx, 48(%rax)
	movq	8(%rsp), %rcx
	movq	40(%rcx), %rcx
	movq	%rcx, 56(%rax)
	movq	16(%rax), %rax
	movq	%rax, 16(%rbx)
	movl	$64, %edi
	callq	_malloc
	movq	24(%rsp), %rcx
	movq	(%rcx), %rcx
	movq	%rcx, (%rax)
	movq	24(%rsp), %rcx
	movq	8(%rcx), %rcx
	movq	%rcx, 8(%rax)
	movq	8(%rsp), %rcx
	movq	(%rcx), %rcx
	movq	%rcx, 16(%rax)
	movq	8(%rsp), %rcx
	movq	8(%rcx), %rcx
	movq	%rcx, 24(%rax)
	movq	8(%rsp), %rdx
	movq	16(%rdx), %rdx
	movq	%rdx, 32(%rax)
	movq	8(%rsp), %rdx
	movq	24(%rdx), %rdx
	movq	%rdx, 40(%rax)
	movq	8(%rsp), %rdx
	movq	32(%rdx), %rdx
	movq	%rdx, 48(%rax)
	movq	8(%rsp), %rdx
	movq	40(%rdx), %rdx
	movq	%rdx, 56(%rax)
	movq	%rcx, 24(%rbx)
	movl	$64, %edi
	callq	_malloc
	movq	24(%rsp), %rcx
	movq	(%rcx), %rcx
	movq	%rcx, (%rax)
	movq	24(%rsp), %rcx
	movq	8(%rcx), %rcx
	movq	%rcx, 8(%rax)
	movq	8(%rsp), %rcx
	movq	(%rcx), %rcx
	movq	%rcx, 16(%rax)
	movq	8(%rsp), %rcx
	movq	8(%rcx), %rcx
	movq	%rcx, 24(%rax)
	movq	8(%rsp), %rcx
	movq	16(%rcx), %rcx
	movq	%rcx, 32(%rax)
	movq	8(%rsp), %rdx
	movq	24(%rdx), %rdx
	movq	%rdx, 40(%rax)
	movq	8(%rsp), %rdx
	movq	32(%rdx), %rdx
	movq	%rdx, 48(%rax)
	movq	8(%rsp), %rdx
	movq	40(%rdx), %rdx
	movq	%rdx, 56(%rax)
	movq	%rcx, 32(%rbx)
	movl	$64, %edi
	callq	_malloc
	movq	24(%rsp), %rcx
	movq	(%rcx), %rcx
	movq	%rcx, (%rax)
	movq	24(%rsp), %rcx
	movq	8(%rcx), %rcx
	movq	%rcx, 8(%rax)
	movq	8(%rsp), %rcx
	movq	(%rcx), %rcx
	movq	%rcx, 16(%rax)
	movq	8(%rsp), %rcx
	movq	8(%rcx), %rcx
	movq	%rcx, 24(%rax)
	movq	8(%rsp), %rcx
	movq	16(%rcx), %rcx
	movq	%rcx, 32(%rax)
	movq	8(%rsp), %rcx
	movq	24(%rcx), %rcx
	movq	%rcx, 40(%rax)
	movq	8(%rsp), %rdx
	movq	32(%rdx), %rdx
	movq	%rdx, 48(%rax)
	movq	8(%rsp), %rdx
	movq	40(%rdx), %rdx
	movq	%rdx, 56(%rax)
	movq	%rcx, 40(%rbx)
	movl	$64, %edi
	callq	_malloc
	movq	24(%rsp), %rcx
	movq	(%rcx), %rcx
	movq	%rcx, (%rax)
	movq	24(%rsp), %rcx
	movq	8(%rcx), %rcx
	movq	%rcx, 8(%rax)
	movq	8(%rsp), %rcx
	movq	(%rcx), %rcx
	movq	%rcx, 16(%rax)
	movq	8(%rsp), %rcx
	movq	8(%rcx), %rcx
	movq	%rcx, 24(%rax)
	movq	8(%rsp), %rcx
	movq	16(%rcx), %rcx
	movq	%rcx, 32(%rax)
	movq	8(%rsp), %rcx
	movq	24(%rcx), %rcx
	movq	%rcx, 40(%rax)
	movq	8(%rsp), %rcx
	movq	32(%rcx), %rcx
	movq	%rcx, 48(%rax)
	movq	8(%rsp), %rdx
	movq	40(%rdx), %rdx
	movq	%rdx, 56(%rax)
	movq	%rcx, 48(%rbx)
	movl	$64, %edi
	callq	_malloc
	movq	24(%rsp), %rcx
	movq	(%rcx), %rcx
	movq	%rcx, (%rax)
	movq	24(%rsp), %rcx
	movq	8(%rcx), %rcx
	movq	%rcx, 8(%rax)
	movq	8(%rsp), %rcx
	movq	(%rcx), %rcx
	movq	%rcx, 16(%rax)
	movq	8(%rsp), %rcx
	movq	8(%rcx), %rcx
	movq	%rcx, 24(%rax)
	movq	8(%rsp), %rcx
	movq	16(%rcx), %rcx
	movq	%rcx, 32(%rax)
	movq	8(%rsp), %rcx
	movq	24(%rcx), %rcx
	movq	%rcx, 40(%rax)
	movq	8(%rsp), %rcx
	movq	32(%rcx), %rcx
	movq	%rcx, 48(%rax)
	movq	8(%rsp), %rcx
	movq	40(%rcx), %rcx
	movq	%rcx, 56(%rax)
	movq	%rcx, 56(%rbx)
	movq	40(%rsp), %rax
	movq	(%rax), %rax
	movq	%rax, 64(%rbx)
	movq	40(%rsp), %rax
	movq	8(%rax), %rax
	movq	%rax, 72(%rbx)
	movq	40(%rsp), %rax
	movq	16(%rax), %rax
	movq	%rax, 80(%rbx)
	movq	40(%rsp), %rcx
	movq	24(%rcx), %rcx
	movq	%rcx, 88(%rbx)
	movq	40(%rsp), %rcx
	movq	32(%rcx), %rcx
	movq	%rcx, 96(%rbx)
	movq	%rax, 80(%r15)
	movl	$104, %edi
	callq	_malloc
	movq	%rax, %rbx
	movl	$64, %edi
	callq	_malloc
	movq	24(%rsp), %rcx
	movq	(%rcx), %rcx
	movq	%rcx, (%rax)
	movq	24(%rsp), %rcx
	movq	8(%rcx), %rcx
	movq	%rcx, 8(%rax)
	movq	8(%rsp), %rcx
	movq	(%rcx), %rcx
	movq	%rcx, 16(%rax)
	movq	8(%rsp), %rcx
	movq	8(%rcx), %rcx
	movq	%rcx, 24(%rax)
	movq	8(%rsp), %rcx
	movq	16(%rcx), %rcx
	movq	%rcx, 32(%rax)
	movq	8(%rsp), %rcx
	movq	24(%rcx), %rcx
	movq	%rcx, 40(%rax)
	movq	8(%rsp), %rcx
	movq	32(%rcx), %rcx
	movq	%rcx, 48(%rax)
	movq	8(%rsp), %rcx
	movq	40(%rcx), %rcx
	movq	%rcx, 56(%rax)
	movq	(%rax), %rax
	movq	%rax, (%rbx)
	movl	$64, %edi
	callq	_malloc
	movq	24(%rsp), %rcx
	movq	(%rcx), %rcx
	movq	%rcx, (%rax)
	movq	24(%rsp), %rcx
	movq	8(%rcx), %rcx
	movq	%rcx, 8(%rax)
	movq	8(%rsp), %rcx
	movq	(%rcx), %rcx
	movq	%rcx, 16(%rax)
	movq	8(%rsp), %rcx
	movq	8(%rcx), %rcx
	movq	%rcx, 24(%rax)
	movq	8(%rsp), %rcx
	movq	16(%rcx), %rcx
	movq	%rcx, 32(%rax)
	movq	8(%rsp), %rcx
	movq	24(%rcx), %rcx
	movq	%rcx, 40(%rax)
	movq	8(%rsp), %rcx
	movq	32(%rcx), %rcx
	movq	%rcx, 48(%rax)
	movq	8(%rsp), %rcx
	movq	40(%rcx), %rcx
	movq	%rcx, 56(%rax)
	movq	8(%rax), %rax
	movq	%rax, 8(%rbx)
	movl	$64, %edi
	callq	_malloc
	movq	24(%rsp), %rcx
	movq	(%rcx), %rcx
	movq	%rcx, (%rax)
	movq	24(%rsp), %rcx
	movq	8(%rcx), %rcx
	movq	%rcx, 8(%rax)
	movq	8(%rsp), %rcx
	movq	(%rcx), %rcx
	movq	%rcx, 16(%rax)
	movq	8(%rsp), %rcx
	movq	8(%rcx), %rcx
	movq	%rcx, 24(%rax)
	movq	8(%rsp), %rcx
	movq	16(%rcx), %rcx
	movq	%rcx, 32(%rax)
	movq	8(%rsp), %rcx
	movq	24(%rcx), %rcx
	movq	%rcx, 40(%rax)
	movq	8(%rsp), %rcx
	movq	32(%rcx), %rcx
	movq	%rcx, 48(%rax)
	movq	8(%rsp), %rcx
	movq	40(%rcx), %rcx
	movq	%rcx, 56(%rax)
	movq	16(%rax), %rax
	movq	%rax, 16(%rbx)
	movl	$64, %edi
	callq	_malloc
	movq	24(%rsp), %rcx
	movq	(%rcx), %rcx
	movq	%rcx, (%rax)
	movq	24(%rsp), %rcx
	movq	8(%rcx), %rcx
	movq	%rcx, 8(%rax)
	movq	8(%rsp), %rcx
	movq	(%rcx), %rcx
	movq	%rcx, 16(%rax)
	movq	8(%rsp), %rcx
	movq	8(%rcx), %rcx
	movq	%rcx, 24(%rax)
	movq	8(%rsp), %rdx
	movq	16(%rdx), %rdx
	movq	%rdx, 32(%rax)
	movq	8(%rsp), %rdx
	movq	24(%rdx), %rdx
	movq	%rdx, 40(%rax)
	movq	8(%rsp), %rdx
	movq	32(%rdx), %rdx
	movq	%rdx, 48(%rax)
	movq	8(%rsp), %rdx
	movq	40(%rdx), %rdx
	movq	%rdx, 56(%rax)
	movq	%rcx, 24(%rbx)
	movl	$64, %edi
	callq	_malloc
	movq	24(%rsp), %rcx
	movq	(%rcx), %rcx
	movq	%rcx, (%rax)
	movq	24(%rsp), %rcx
	movq	8(%rcx), %rcx
	movq	%rcx, 8(%rax)
	movq	8(%rsp), %rcx
	movq	(%rcx), %rcx
	movq	%rcx, 16(%rax)
	movq	8(%rsp), %rcx
	movq	8(%rcx), %rcx
	movq	%rcx, 24(%rax)
	movq	8(%rsp), %rcx
	movq	16(%rcx), %rcx
	movq	%rcx, 32(%rax)
	movq	8(%rsp), %rdx
	movq	24(%rdx), %rdx
	movq	%rdx, 40(%rax)
	movq	8(%rsp), %rdx
	movq	32(%rdx), %rdx
	movq	%rdx, 48(%rax)
	movq	8(%rsp), %rdx
	movq	40(%rdx), %rdx
	movq	%rdx, 56(%rax)
	movq	%rcx, 32(%rbx)
	movl	$64, %edi
	callq	_malloc
	movq	24(%rsp), %rcx
	movq	(%rcx), %rcx
	movq	%rcx, (%rax)
	movq	24(%rsp), %rcx
	movq	8(%rcx), %rcx
	movq	%rcx, 8(%rax)
	movq	8(%rsp), %rcx
	movq	(%rcx), %rcx
	movq	%rcx, 16(%rax)
	movq	8(%rsp), %rcx
	movq	8(%rcx), %rcx
	movq	%rcx, 24(%rax)
	movq	8(%rsp), %rcx
	movq	16(%rcx), %rcx
	movq	%rcx, 32(%rax)
	movq	8(%rsp), %rcx
	movq	24(%rcx), %rcx
	movq	%rcx, 40(%rax)
	movq	8(%rsp), %rdx
	movq	32(%rdx), %rdx
	movq	%rdx, 48(%rax)
	movq	8(%rsp), %rdx
	movq	40(%rdx), %rdx
	movq	%rdx, 56(%rax)
	movq	%rcx, 40(%rbx)
	movl	$64, %edi
	callq	_malloc
	movq	24(%rsp), %rcx
	movq	(%rcx), %rcx
	movq	%rcx, (%rax)
	movq	24(%rsp), %rcx
	movq	8(%rcx), %rcx
	movq	%rcx, 8(%rax)
	movq	8(%rsp), %rcx
	movq	(%rcx), %rcx
	movq	%rcx, 16(%rax)
	movq	8(%rsp), %rcx
	movq	8(%rcx), %rcx
	movq	%rcx, 24(%rax)
	movq	8(%rsp), %rcx
	movq	16(%rcx), %rcx
	movq	%rcx, 32(%rax)
	movq	8(%rsp), %rcx
	movq	24(%rcx), %rcx
	movq	%rcx, 40(%rax)
	movq	8(%rsp), %rcx
	movq	32(%rcx), %rcx
	movq	%rcx, 48(%rax)
	movq	8(%rsp), %rdx
	movq	40(%rdx), %rdx
	movq	%rdx, 56(%rax)
	movq	%rcx, 48(%rbx)
	movl	$64, %edi
	callq	_malloc
	movq	24(%rsp), %rcx
	movq	(%rcx), %rcx
	movq	%rcx, (%rax)
	movq	24(%rsp), %rcx
	movq	8(%rcx), %rcx
	movq	%rcx, 8(%rax)
	movq	8(%rsp), %rcx
	movq	(%rcx), %rcx
	movq	%rcx, 16(%rax)
	movq	8(%rsp), %rcx
	movq	8(%rcx), %rcx
	movq	%rcx, 24(%rax)
	movq	8(%rsp), %rcx
	movq	16(%rcx), %rcx
	movq	%rcx, 32(%rax)
	movq	8(%rsp), %rcx
	movq	24(%rcx), %rcx
	movq	%rcx, 40(%rax)
	movq	8(%rsp), %rcx
	movq	32(%rcx), %rcx
	movq	%rcx, 48(%rax)
	movq	8(%rsp), %rcx
	movq	40(%rcx), %rcx
	movq	%rcx, 56(%rax)
	movq	%rcx, 56(%rbx)
	movq	40(%rsp), %rax
	movq	(%rax), %rax
	movq	%rax, 64(%rbx)
	movq	40(%rsp), %rax
	movq	8(%rax), %rax
	movq	%rax, 72(%rbx)
	movq	40(%rsp), %rax
	movq	16(%rax), %rax
	movq	%rax, 80(%rbx)
	movq	40(%rsp), %rax
	movq	24(%rax), %rax
	movq	%rax, 88(%rbx)
	movq	40(%rsp), %rcx
	movq	32(%rcx), %rcx
	movq	%rcx, 96(%rbx)
	movq	%rax, 88(%r15)
	movl	$104, %edi
	callq	_malloc
	movq	%rax, %rbx
	movl	$64, %edi
	callq	_malloc
	movq	24(%rsp), %rcx
	movq	(%rcx), %rcx
	movq	%rcx, (%rax)
	movq	24(%rsp), %rcx
	movq	8(%rcx), %rcx
	movq	%rcx, 8(%rax)
	movq	8(%rsp), %rcx
	movq	(%rcx), %rcx
	movq	%rcx, 16(%rax)
	movq	8(%rsp), %rcx
	movq	8(%rcx), %rcx
	movq	%rcx, 24(%rax)
	movq	8(%rsp), %rcx
	movq	16(%rcx), %rcx
	movq	%rcx, 32(%rax)
	movq	8(%rsp), %rcx
	movq	24(%rcx), %rcx
	movq	%rcx, 40(%rax)
	movq	8(%rsp), %rcx
	movq	32(%rcx), %rcx
	movq	%rcx, 48(%rax)
	movq	8(%rsp), %rcx
	movq	40(%rcx), %rcx
	movq	%rcx, 56(%rax)
	movq	(%rax), %rax
	movq	%rax, (%rbx)
	movl	$64, %edi
	callq	_malloc
	movq	24(%rsp), %rcx
	movq	(%rcx), %rcx
	movq	%rcx, (%rax)
	movq	24(%rsp), %rcx
	movq	8(%rcx), %rcx
	movq	%rcx, 8(%rax)
	movq	8(%rsp), %rcx
	movq	(%rcx), %rcx
	movq	%rcx, 16(%rax)
	movq	8(%rsp), %rcx
	movq	8(%rcx), %rcx
	movq	%rcx, 24(%rax)
	movq	8(%rsp), %rcx
	movq	16(%rcx), %rcx
	movq	%rcx, 32(%rax)
	movq	8(%rsp), %rcx
	movq	24(%rcx), %rcx
	movq	%rcx, 40(%rax)
	movq	8(%rsp), %rcx
	movq	32(%rcx), %rcx
	movq	%rcx, 48(%rax)
	movq	8(%rsp), %rcx
	movq	40(%rcx), %rcx
	movq	%rcx, 56(%rax)
	movq	8(%rax), %rax
	movq	%rax, 8(%rbx)
	movl	$64, %edi
	callq	_malloc
	movq	24(%rsp), %rcx
	movq	(%rcx), %rcx
	movq	%rcx, (%rax)
	movq	24(%rsp), %rcx
	movq	8(%rcx), %rcx
	movq	%rcx, 8(%rax)
	movq	8(%rsp), %rcx
	movq	(%rcx), %rcx
	movq	%rcx, 16(%rax)
	movq	8(%rsp), %rcx
	movq	8(%rcx), %rcx
	movq	%rcx, 24(%rax)
	movq	8(%rsp), %rcx
	movq	16(%rcx), %rcx
	movq	%rcx, 32(%rax)
	movq	8(%rsp), %rcx
	movq	24(%rcx), %rcx
	movq	%rcx, 40(%rax)
	movq	8(%rsp), %rcx
	movq	32(%rcx), %rcx
	movq	%rcx, 48(%rax)
	movq	8(%rsp), %rcx
	movq	40(%rcx), %rcx
	movq	%rcx, 56(%rax)
	movq	16(%rax), %rax
	movq	%rax, 16(%rbx)
	movl	$64, %edi
	callq	_malloc
	movq	24(%rsp), %rcx
	movq	(%rcx), %rcx
	movq	%rcx, (%rax)
	movq	24(%rsp), %rcx
	movq	8(%rcx), %rcx
	movq	%rcx, 8(%rax)
	movq	8(%rsp), %rcx
	movq	(%rcx), %rcx
	movq	%rcx, 16(%rax)
	movq	8(%rsp), %rcx
	movq	8(%rcx), %rcx
	movq	%rcx, 24(%rax)
	movq	8(%rsp), %rdx
	movq	16(%rdx), %rdx
	movq	%rdx, 32(%rax)
	movq	8(%rsp), %rdx
	movq	24(%rdx), %rdx
	movq	%rdx, 40(%rax)
	movq	8(%rsp), %rdx
	movq	32(%rdx), %rdx
	movq	%rdx, 48(%rax)
	movq	8(%rsp), %rdx
	movq	40(%rdx), %rdx
	movq	%rdx, 56(%rax)
	movq	%rcx, 24(%rbx)
	movl	$64, %edi
	callq	_malloc
	movq	24(%rsp), %rcx
	movq	(%rcx), %rcx
	movq	%rcx, (%rax)
	movq	24(%rsp), %rcx
	movq	8(%rcx), %rcx
	movq	%rcx, 8(%rax)
	movq	8(%rsp), %rcx
	movq	(%rcx), %rcx
	movq	%rcx, 16(%rax)
	movq	8(%rsp), %rcx
	movq	8(%rcx), %rcx
	movq	%rcx, 24(%rax)
	movq	8(%rsp), %rcx
	movq	16(%rcx), %rcx
	movq	%rcx, 32(%rax)
	movq	8(%rsp), %rdx
	movq	24(%rdx), %rdx
	movq	%rdx, 40(%rax)
	movq	8(%rsp), %rdx
	movq	32(%rdx), %rdx
	movq	%rdx, 48(%rax)
	movq	8(%rsp), %rdx
	movq	40(%rdx), %rdx
	movq	%rdx, 56(%rax)
	movq	%rcx, 32(%rbx)
	movl	$64, %edi
	callq	_malloc
	movq	24(%rsp), %rcx
	movq	(%rcx), %rcx
	movq	%rcx, (%rax)
	movq	24(%rsp), %rcx
	movq	8(%rcx), %rcx
	movq	%rcx, 8(%rax)
	movq	8(%rsp), %rcx
	movq	(%rcx), %rcx
	movq	%rcx, 16(%rax)
	movq	8(%rsp), %rcx
	movq	8(%rcx), %rcx
	movq	%rcx, 24(%rax)
	movq	8(%rsp), %rcx
	movq	16(%rcx), %rcx
	movq	%rcx, 32(%rax)
	movq	8(%rsp), %rcx
	movq	24(%rcx), %rcx
	movq	%rcx, 40(%rax)
	movq	8(%rsp), %rdx
	movq	32(%rdx), %rdx
	movq	%rdx, 48(%rax)
	movq	8(%rsp), %rdx
	movq	40(%rdx), %rdx
	movq	%rdx, 56(%rax)
	movq	%rcx, 40(%rbx)
	movl	$64, %edi
	callq	_malloc
	movq	24(%rsp), %rcx
	movq	(%rcx), %rcx
	movq	%rcx, (%rax)
	movq	24(%rsp), %rcx
	movq	8(%rcx), %rcx
	movq	%rcx, 8(%rax)
	movq	8(%rsp), %rcx
	movq	(%rcx), %rcx
	movq	%rcx, 16(%rax)
	movq	8(%rsp), %rcx
	movq	8(%rcx), %rcx
	movq	%rcx, 24(%rax)
	movq	8(%rsp), %rcx
	movq	16(%rcx), %rcx
	movq	%rcx, 32(%rax)
	movq	8(%rsp), %rcx
	movq	24(%rcx), %rcx
	movq	%rcx, 40(%rax)
	movq	8(%rsp), %rcx
	movq	32(%rcx), %rcx
	movq	%rcx, 48(%rax)
	movq	8(%rsp), %rdx
	movq	40(%rdx), %rdx
	movq	%rdx, 56(%rax)
	movq	%rcx, 48(%rbx)
	movl	$64, %edi
	callq	_malloc
	movq	24(%rsp), %rcx
	movq	(%rcx), %rcx
	movq	%rcx, (%rax)
	movq	24(%rsp), %rcx
	movq	8(%rcx), %rcx
	movq	%rcx, 8(%rax)
	movq	8(%rsp), %rcx
	movq	(%rcx), %rcx
	movq	%rcx, 16(%rax)
	movq	8(%rsp), %rcx
	movq	8(%rcx), %rcx
	movq	%rcx, 24(%rax)
	movq	8(%rsp), %rcx
	movq	16(%rcx), %rcx
	movq	%rcx, 32(%rax)
	movq	8(%rsp), %rcx
	movq	24(%rcx), %rcx
	movq	%rcx, 40(%rax)
	movq	8(%rsp), %rcx
	movq	32(%rcx), %rcx
	movq	%rcx, 48(%rax)
	movq	8(%rsp), %rcx
	movq	40(%rcx), %rcx
	movq	%rcx, 56(%rax)
	movq	%rcx, 56(%rbx)
	movq	40(%rsp), %rax
	movq	(%rax), %rax
	movq	%rax, 64(%rbx)
	movq	40(%rsp), %rax
	movq	8(%rax), %rax
	movq	%rax, 72(%rbx)
	movq	40(%rsp), %rax
	movq	16(%rax), %rax
	movq	%rax, 80(%rbx)
	movq	40(%rsp), %rax
	movq	24(%rax), %rax
	movq	%rax, 88(%rbx)
	movq	40(%rsp), %rax
	movq	32(%rax), %rax
	movq	%rax, 96(%rbx)
	movq	%rax, 96(%r15)
	movq	56(%rsp), %rax
	movq	(%rax), %rax
	movq	%rax, 104(%r15)
	movq	56(%rsp), %rax
	movq	8(%rax), %rax
	movq	%rax, 112(%r15)
	movq	56(%rsp), %rax
	movq	16(%rax), %rax
	movq	%rax, 120(%r15)
	movq	56(%rsp), %rax
	movq	24(%rax), %rax
	movq	%rax, 128(%r15)
	movq	56(%rsp), %rax
	movq	32(%rax), %rax
	movq	%rax, 136(%r15)
	movq	16(%r15), %rax
	movq	%rax, 16(%r14)
	movl	$144, %edi
	callq	_malloc
	movq	%rax, %r15
	movl	$104, %edi
	callq	_malloc
	movq	%rax, %rbx
	movl	$64, %edi
	callq	_malloc
	movq	24(%rsp), %rcx
	movq	(%rcx), %rcx
	movq	%rcx, (%rax)
	movq	24(%rsp), %rcx
	movq	8(%rcx), %rcx
	movq	%rcx, 8(%rax)
	movq	8(%rsp), %rcx
	movq	(%rcx), %rcx
	movq	%rcx, 16(%rax)
	movq	8(%rsp), %rcx
	movq	8(%rcx), %rcx
	movq	%rcx, 24(%rax)
	movq	8(%rsp), %rcx
	movq	16(%rcx), %rcx
	movq	%rcx, 32(%rax)
	movq	8(%rsp), %rcx
	movq	24(%rcx), %rcx
	movq	%rcx, 40(%rax)
	movq	8(%rsp), %rcx
	movq	32(%rcx), %rcx
	movq	%rcx, 48(%rax)
	movq	8(%rsp), %rcx
	movq	40(%rcx), %rcx
	movq	%rcx, 56(%rax)
	movq	(%rax), %rax
	movq	%rax, (%rbx)
	movl	$64, %edi
	callq	_malloc
	movq	24(%rsp), %rcx
	movq	(%rcx), %rcx
	movq	%rcx, (%rax)
	movq	24(%rsp), %rcx
	movq	8(%rcx), %rcx
	movq	%rcx, 8(%rax)
	movq	8(%rsp), %rcx
	movq	(%rcx), %rcx
	movq	%rcx, 16(%rax)
	movq	8(%rsp), %rcx
	movq	8(%rcx), %rcx
	movq	%rcx, 24(%rax)
	movq	8(%rsp), %rcx
	movq	16(%rcx), %rcx
	movq	%rcx, 32(%rax)
	movq	8(%rsp), %rcx
	movq	24(%rcx), %rcx
	movq	%rcx, 40(%rax)
	movq	8(%rsp), %rcx
	movq	32(%rcx), %rcx
	movq	%rcx, 48(%rax)
	movq	8(%rsp), %rcx
	movq	40(%rcx), %rcx
	movq	%rcx, 56(%rax)
	movq	8(%rax), %rax
	movq	%rax, 8(%rbx)
	movl	$64, %edi
	callq	_malloc
	movq	24(%rsp), %rcx
	movq	(%rcx), %rcx
	movq	%rcx, (%rax)
	movq	24(%rsp), %rcx
	movq	8(%rcx), %rcx
	movq	%rcx, 8(%rax)
	movq	8(%rsp), %rcx
	movq	(%rcx), %rcx
	movq	%rcx, 16(%rax)
	movq	8(%rsp), %rcx
	movq	8(%rcx), %rcx
	movq	%rcx, 24(%rax)
	movq	8(%rsp), %rcx
	movq	16(%rcx), %rcx
	movq	%rcx, 32(%rax)
	movq	8(%rsp), %rcx
	movq	24(%rcx), %rcx
	movq	%rcx, 40(%rax)
	movq	8(%rsp), %rcx
	movq	32(%rcx), %rcx
	movq	%rcx, 48(%rax)
	movq	8(%rsp), %rcx
	movq	40(%rcx), %rcx
	movq	%rcx, 56(%rax)
	movq	16(%rax), %rax
	movq	%rax, 16(%rbx)
	movl	$64, %edi
	callq	_malloc
	movq	24(%rsp), %rcx
	movq	(%rcx), %rcx
	movq	%rcx, (%rax)
	movq	24(%rsp), %rcx
	movq	8(%rcx), %rcx
	movq	%rcx, 8(%rax)
	movq	8(%rsp), %rcx
	movq	(%rcx), %rcx
	movq	%rcx, 16(%rax)
	movq	8(%rsp), %rcx
	movq	8(%rcx), %rcx
	movq	%rcx, 24(%rax)
	movq	8(%rsp), %rdx
	movq	16(%rdx), %rdx
	movq	%rdx, 32(%rax)
	movq	8(%rsp), %rdx
	movq	24(%rdx), %rdx
	movq	%rdx, 40(%rax)
	movq	8(%rsp), %rdx
	movq	32(%rdx), %rdx
	movq	%rdx, 48(%rax)
	movq	8(%rsp), %rdx
	movq	40(%rdx), %rdx
	movq	%rdx, 56(%rax)
	movq	%rcx, 24(%rbx)
	movl	$64, %edi
	callq	_malloc
	movq	24(%rsp), %rcx
	movq	(%rcx), %rcx
	movq	%rcx, (%rax)
	movq	24(%rsp), %rcx
	movq	8(%rcx), %rcx
	movq	%rcx, 8(%rax)
	movq	8(%rsp), %rcx
	movq	(%rcx), %rcx
	movq	%rcx, 16(%rax)
	movq	8(%rsp), %rcx
	movq	8(%rcx), %rcx
	movq	%rcx, 24(%rax)
	movq	8(%rsp), %rcx
	movq	16(%rcx), %rcx
	movq	%rcx, 32(%rax)
	movq	8(%rsp), %rdx
	movq	24(%rdx), %rdx
	movq	%rdx, 40(%rax)
	movq	8(%rsp), %rdx
	movq	32(%rdx), %rdx
	movq	%rdx, 48(%rax)
	movq	8(%rsp), %rdx
	movq	40(%rdx), %rdx
	movq	%rdx, 56(%rax)
	movq	%rcx, 32(%rbx)
	movl	$64, %edi
	callq	_malloc
	movq	24(%rsp), %rcx
	movq	(%rcx), %rcx
	movq	%rcx, (%rax)
	movq	24(%rsp), %rcx
	movq	8(%rcx), %rcx
	movq	%rcx, 8(%rax)
	movq	8(%rsp), %rcx
	movq	(%rcx), %rcx
	movq	%rcx, 16(%rax)
	movq	8(%rsp), %rcx
	movq	8(%rcx), %rcx
	movq	%rcx, 24(%rax)
	movq	8(%rsp), %rcx
	movq	16(%rcx), %rcx
	movq	%rcx, 32(%rax)
	movq	8(%rsp), %rcx
	movq	24(%rcx), %rcx
	movq	%rcx, 40(%rax)
	movq	8(%rsp), %rdx
	movq	32(%rdx), %rdx
	movq	%rdx, 48(%rax)
	movq	8(%rsp), %rdx
	movq	40(%rdx), %rdx
	movq	%rdx, 56(%rax)
	movq	%rcx, 40(%rbx)
	movl	$64, %edi
	callq	_malloc
	movq	24(%rsp), %rcx
	movq	(%rcx), %rcx
	movq	%rcx, (%rax)
	movq	24(%rsp), %rcx
	movq	8(%rcx), %rcx
	movq	%rcx, 8(%rax)
	movq	8(%rsp), %rcx
	movq	(%rcx), %rcx
	movq	%rcx, 16(%rax)
	movq	8(%rsp), %rcx
	movq	8(%rcx), %rcx
	movq	%rcx, 24(%rax)
	movq	8(%rsp), %rcx
	movq	16(%rcx), %rcx
	movq	%rcx, 32(%rax)
	movq	8(%rsp), %rcx
	movq	24(%rcx), %rcx
	movq	%rcx, 40(%rax)
	movq	8(%rsp), %rcx
	movq	32(%rcx), %rcx
	movq	%rcx, 48(%rax)
	movq	8(%rsp), %rdx
	movq	40(%rdx), %rdx
	movq	%rdx, 56(%rax)
	movq	%rcx, 48(%rbx)
	movl	$64, %edi
	callq	_malloc
	movq	24(%rsp), %rcx
	movq	(%rcx), %rcx
	movq	%rcx, (%rax)
	movq	24(%rsp), %rcx
	movq	8(%rcx), %rcx
	movq	%rcx, 8(%rax)
	movq	8(%rsp), %rcx
	movq	(%rcx), %rcx
	movq	%rcx, 16(%rax)
	movq	8(%rsp), %rcx
	movq	8(%rcx), %rcx
	movq	%rcx, 24(%rax)
	movq	8(%rsp), %rcx
	movq	16(%rcx), %rcx
	movq	%rcx, 32(%rax)
	movq	8(%rsp), %rcx
	movq	24(%rcx), %rcx
	movq	%rcx, 40(%rax)
	movq	8(%rsp), %rcx
	movq	32(%rcx), %rcx
	movq	%rcx, 48(%rax)
	movq	8(%rsp), %rcx
	movq	40(%rcx), %rcx
	movq	%rcx, 56(%rax)
	movq	%rcx, 56(%rbx)
	movq	40(%rsp), %rax
	movq	(%rax), %rax
	movq	%rax, 64(%rbx)
	movq	40(%rsp), %rax
	movq	8(%rax), %rax
	movq	%rax, 72(%rbx)
	movq	40(%rsp), %rax
	movq	16(%rax), %rax
	movq	%rax, 80(%rbx)
	movq	40(%rsp), %rax
	movq	24(%rax), %rax
	movq	%rax, 88(%rbx)
	movq	40(%rsp), %rax
	movq	32(%rax), %rax
	movq	%rax, 96(%rbx)
	movq	(%rbx), %rax
	movq	%rax, (%r15)
	movl	$104, %edi
	callq	_malloc
	movq	%rax, %rbx
	movl	$64, %edi
	callq	_malloc
	movq	24(%rsp), %rcx
	movq	(%rcx), %rcx
	movq	%rcx, (%rax)
	movq	24(%rsp), %rcx
	movq	8(%rcx), %rcx
	movq	%rcx, 8(%rax)
	movq	8(%rsp), %rcx
	movq	(%rcx), %rcx
	movq	%rcx, 16(%rax)
	movq	8(%rsp), %rcx
	movq	8(%rcx), %rcx
	movq	%rcx, 24(%rax)
	movq	8(%rsp), %rcx
	movq	16(%rcx), %rcx
	movq	%rcx, 32(%rax)
	movq	8(%rsp), %rcx
	movq	24(%rcx), %rcx
	movq	%rcx, 40(%rax)
	movq	8(%rsp), %rcx
	movq	32(%rcx), %rcx
	movq	%rcx, 48(%rax)
	movq	8(%rsp), %rcx
	movq	40(%rcx), %rcx
	movq	%rcx, 56(%rax)
	movq	(%rax), %rax
	movq	%rax, (%rbx)
	movl	$64, %edi
	callq	_malloc
	movq	24(%rsp), %rcx
	movq	(%rcx), %rcx
	movq	%rcx, (%rax)
	movq	24(%rsp), %rcx
	movq	8(%rcx), %rcx
	movq	%rcx, 8(%rax)
	movq	8(%rsp), %rcx
	movq	(%rcx), %rcx
	movq	%rcx, 16(%rax)
	movq	8(%rsp), %rcx
	movq	8(%rcx), %rcx
	movq	%rcx, 24(%rax)
	movq	8(%rsp), %rcx
	movq	16(%rcx), %rcx
	movq	%rcx, 32(%rax)
	movq	8(%rsp), %rcx
	movq	24(%rcx), %rcx
	movq	%rcx, 40(%rax)
	movq	8(%rsp), %rcx
	movq	32(%rcx), %rcx
	movq	%rcx, 48(%rax)
	movq	8(%rsp), %rcx
	movq	40(%rcx), %rcx
	movq	%rcx, 56(%rax)
	movq	8(%rax), %rax
	movq	%rax, 8(%rbx)
	movl	$64, %edi
	callq	_malloc
	movq	24(%rsp), %rcx
	movq	(%rcx), %rcx
	movq	%rcx, (%rax)
	movq	24(%rsp), %rcx
	movq	8(%rcx), %rcx
	movq	%rcx, 8(%rax)
	movq	8(%rsp), %rcx
	movq	(%rcx), %rcx
	movq	%rcx, 16(%rax)
	movq	8(%rsp), %rcx
	movq	8(%rcx), %rcx
	movq	%rcx, 24(%rax)
	movq	8(%rsp), %rcx
	movq	16(%rcx), %rcx
	movq	%rcx, 32(%rax)
	movq	8(%rsp), %rcx
	movq	24(%rcx), %rcx
	movq	%rcx, 40(%rax)
	movq	8(%rsp), %rcx
	movq	32(%rcx), %rcx
	movq	%rcx, 48(%rax)
	movq	8(%rsp), %rcx
	movq	40(%rcx), %rcx
	movq	%rcx, 56(%rax)
	movq	16(%rax), %rax
	movq	%rax, 16(%rbx)
	movl	$64, %edi
	callq	_malloc
	movq	24(%rsp), %rcx
	movq	(%rcx), %rcx
	movq	%rcx, (%rax)
	movq	24(%rsp), %rcx
	movq	8(%rcx), %rcx
	movq	%rcx, 8(%rax)
	movq	8(%rsp), %rcx
	movq	(%rcx), %rcx
	movq	%rcx, 16(%rax)
	movq	8(%rsp), %rcx
	movq	8(%rcx), %rcx
	movq	%rcx, 24(%rax)
	movq	8(%rsp), %rdx
	movq	16(%rdx), %rdx
	movq	%rdx, 32(%rax)
	movq	8(%rsp), %rdx
	movq	24(%rdx), %rdx
	movq	%rdx, 40(%rax)
	movq	8(%rsp), %rdx
	movq	32(%rdx), %rdx
	movq	%rdx, 48(%rax)
	movq	8(%rsp), %rdx
	movq	40(%rdx), %rdx
	movq	%rdx, 56(%rax)
	movq	%rcx, 24(%rbx)
	movl	$64, %edi
	callq	_malloc
	movq	24(%rsp), %rcx
	movq	(%rcx), %rcx
	movq	%rcx, (%rax)
	movq	24(%rsp), %rcx
	movq	8(%rcx), %rcx
	movq	%rcx, 8(%rax)
	movq	8(%rsp), %rcx
	movq	(%rcx), %rcx
	movq	%rcx, 16(%rax)
	movq	8(%rsp), %rcx
	movq	8(%rcx), %rcx
	movq	%rcx, 24(%rax)
	movq	8(%rsp), %rcx
	movq	16(%rcx), %rcx
	movq	%rcx, 32(%rax)
	movq	8(%rsp), %rdx
	movq	24(%rdx), %rdx
	movq	%rdx, 40(%rax)
	movq	8(%rsp), %rdx
	movq	32(%rdx), %rdx
	movq	%rdx, 48(%rax)
	movq	8(%rsp), %rdx
	movq	40(%rdx), %rdx
	movq	%rdx, 56(%rax)
	movq	%rcx, 32(%rbx)
	movl	$64, %edi
	callq	_malloc
	movq	24(%rsp), %rcx
	movq	(%rcx), %rcx
	movq	%rcx, (%rax)
	movq	24(%rsp), %rcx
	movq	8(%rcx), %rcx
	movq	%rcx, 8(%rax)
	movq	8(%rsp), %rcx
	movq	(%rcx), %rcx
	movq	%rcx, 16(%rax)
	movq	8(%rsp), %rcx
	movq	8(%rcx), %rcx
	movq	%rcx, 24(%rax)
	movq	8(%rsp), %rcx
	movq	16(%rcx), %rcx
	movq	%rcx, 32(%rax)
	movq	8(%rsp), %rcx
	movq	24(%rcx), %rcx
	movq	%rcx, 40(%rax)
	movq	8(%rsp), %rdx
	movq	32(%rdx), %rdx
	movq	%rdx, 48(%rax)
	movq	8(%rsp), %rdx
	movq	40(%rdx), %rdx
	movq	%rdx, 56(%rax)
	movq	%rcx, 40(%rbx)
	movl	$64, %edi
	callq	_malloc
	movq	24(%rsp), %rcx
	movq	(%rcx), %rcx
	movq	%rcx, (%rax)
	movq	24(%rsp), %rcx
	movq	8(%rcx), %rcx
	movq	%rcx, 8(%rax)
	movq	8(%rsp), %rcx
	movq	(%rcx), %rcx
	movq	%rcx, 16(%rax)
	movq	8(%rsp), %rcx
	movq	8(%rcx), %rcx
	movq	%rcx, 24(%rax)
	movq	8(%rsp), %rcx
	movq	16(%rcx), %rcx
	movq	%rcx, 32(%rax)
	movq	8(%rsp), %rcx
	movq	24(%rcx), %rcx
	movq	%rcx, 40(%rax)
	movq	8(%rsp), %rcx
	movq	32(%rcx), %rcx
	movq	%rcx, 48(%rax)
	movq	8(%rsp), %rdx
	movq	40(%rdx), %rdx
	movq	%rdx, 56(%rax)
	movq	%rcx, 48(%rbx)
	movl	$64, %edi
	callq	_malloc
	movq	24(%rsp), %rcx
	movq	(%rcx), %rcx
	movq	%rcx, (%rax)
	movq	24(%rsp), %rcx
	movq	8(%rcx), %rcx
	movq	%rcx, 8(%rax)
	movq	8(%rsp), %rcx
	movq	(%rcx), %rcx
	movq	%rcx, 16(%rax)
	movq	8(%rsp), %rcx
	movq	8(%rcx), %rcx
	movq	%rcx, 24(%rax)
	movq	8(%rsp), %rcx
	movq	16(%rcx), %rcx
	movq	%rcx, 32(%rax)
	movq	8(%rsp), %rcx
	movq	24(%rcx), %rcx
	movq	%rcx, 40(%rax)
	movq	8(%rsp), %rcx
	movq	32(%rcx), %rcx
	movq	%rcx, 48(%rax)
	movq	8(%rsp), %rcx
	movq	40(%rcx), %rcx
	movq	%rcx, 56(%rax)
	movq	%rcx, 56(%rbx)
	movq	40(%rsp), %rax
	movq	(%rax), %rax
	movq	%rax, 64(%rbx)
	movq	40(%rsp), %rax
	movq	8(%rax), %rax
	movq	%rax, 72(%rbx)
	movq	40(%rsp), %rax
	movq	16(%rax), %rax
	movq	%rax, 80(%rbx)
	movq	40(%rsp), %rax
	movq	24(%rax), %rax
	movq	%rax, 88(%rbx)
	movq	40(%rsp), %rax
	movq	32(%rax), %rax
	movq	%rax, 96(%rbx)
	movq	8(%rbx), %rax
	movq	%rax, 8(%r15)
	movl	$104, %edi
	callq	_malloc
	movq	%rax, %rbx
	movl	$64, %edi
	callq	_malloc
	movq	24(%rsp), %rcx
	movq	(%rcx), %rcx
	movq	%rcx, (%rax)
	movq	24(%rsp), %rcx
	movq	8(%rcx), %rcx
	movq	%rcx, 8(%rax)
	movq	8(%rsp), %rcx
	movq	(%rcx), %rcx
	movq	%rcx, 16(%rax)
	movq	8(%rsp), %rcx
	movq	8(%rcx), %rcx
	movq	%rcx, 24(%rax)
	movq	8(%rsp), %rcx
	movq	16(%rcx), %rcx
	movq	%rcx, 32(%rax)
	movq	8(%rsp), %rcx
	movq	24(%rcx), %rcx
	movq	%rcx, 40(%rax)
	movq	8(%rsp), %rcx
	movq	32(%rcx), %rcx
	movq	%rcx, 48(%rax)
	movq	8(%rsp), %rcx
	movq	40(%rcx), %rcx
	movq	%rcx, 56(%rax)
	movq	(%rax), %rax
	movq	%rax, (%rbx)
	movl	$64, %edi
	callq	_malloc
	movq	24(%rsp), %rcx
	movq	(%rcx), %rcx
	movq	%rcx, (%rax)
	movq	24(%rsp), %rcx
	movq	8(%rcx), %rcx
	movq	%rcx, 8(%rax)
	movq	8(%rsp), %rcx
	movq	(%rcx), %rcx
	movq	%rcx, 16(%rax)
	movq	8(%rsp), %rcx
	movq	8(%rcx), %rcx
	movq	%rcx, 24(%rax)
	movq	8(%rsp), %rcx
	movq	16(%rcx), %rcx
	movq	%rcx, 32(%rax)
	movq	8(%rsp), %rcx
	movq	24(%rcx), %rcx
	movq	%rcx, 40(%rax)
	movq	8(%rsp), %rcx
	movq	32(%rcx), %rcx
	movq	%rcx, 48(%rax)
	movq	8(%rsp), %rcx
	movq	40(%rcx), %rcx
	movq	%rcx, 56(%rax)
	movq	8(%rax), %rax
	movq	%rax, 8(%rbx)
	movl	$64, %edi
	callq	_malloc
	movq	24(%rsp), %rcx
	movq	(%rcx), %rcx
	movq	%rcx, (%rax)
	movq	24(%rsp), %rcx
	movq	8(%rcx), %rcx
	movq	%rcx, 8(%rax)
	movq	8(%rsp), %rcx
	movq	(%rcx), %rcx
	movq	%rcx, 16(%rax)
	movq	8(%rsp), %rcx
	movq	8(%rcx), %rcx
	movq	%rcx, 24(%rax)
	movq	8(%rsp), %rcx
	movq	16(%rcx), %rcx
	movq	%rcx, 32(%rax)
	movq	8(%rsp), %rcx
	movq	24(%rcx), %rcx
	movq	%rcx, 40(%rax)
	movq	8(%rsp), %rcx
	movq	32(%rcx), %rcx
	movq	%rcx, 48(%rax)
	movq	8(%rsp), %rcx
	movq	40(%rcx), %rcx
	movq	%rcx, 56(%rax)
	movq	16(%rax), %rax
	movq	%rax, 16(%rbx)
	movl	$64, %edi
	callq	_malloc
	movq	24(%rsp), %rcx
	movq	(%rcx), %rcx
	movq	%rcx, (%rax)
	movq	24(%rsp), %rcx
	movq	8(%rcx), %rcx
	movq	%rcx, 8(%rax)
	movq	8(%rsp), %rcx
	movq	(%rcx), %rcx
	movq	%rcx, 16(%rax)
	movq	8(%rsp), %rcx
	movq	8(%rcx), %rcx
	movq	%rcx, 24(%rax)
	movq	8(%rsp), %rdx
	movq	16(%rdx), %rdx
	movq	%rdx, 32(%rax)
	movq	8(%rsp), %rdx
	movq	24(%rdx), %rdx
	movq	%rdx, 40(%rax)
	movq	8(%rsp), %rdx
	movq	32(%rdx), %rdx
	movq	%rdx, 48(%rax)
	movq	8(%rsp), %rdx
	movq	40(%rdx), %rdx
	movq	%rdx, 56(%rax)
	movq	%rcx, 24(%rbx)
	movl	$64, %edi
	callq	_malloc
	movq	24(%rsp), %rcx
	movq	(%rcx), %rcx
	movq	%rcx, (%rax)
	movq	24(%rsp), %rcx
	movq	8(%rcx), %rcx
	movq	%rcx, 8(%rax)
	movq	8(%rsp), %rcx
	movq	(%rcx), %rcx
	movq	%rcx, 16(%rax)
	movq	8(%rsp), %rcx
	movq	8(%rcx), %rcx
	movq	%rcx, 24(%rax)
	movq	8(%rsp), %rcx
	movq	16(%rcx), %rcx
	movq	%rcx, 32(%rax)
	movq	8(%rsp), %rdx
	movq	24(%rdx), %rdx
	movq	%rdx, 40(%rax)
	movq	8(%rsp), %rdx
	movq	32(%rdx), %rdx
	movq	%rdx, 48(%rax)
	movq	8(%rsp), %rdx
	movq	40(%rdx), %rdx
	movq	%rdx, 56(%rax)
	movq	%rcx, 32(%rbx)
	movl	$64, %edi
	callq	_malloc
	movq	24(%rsp), %rcx
	movq	(%rcx), %rcx
	movq	%rcx, (%rax)
	movq	24(%rsp), %rcx
	movq	8(%rcx), %rcx
	movq	%rcx, 8(%rax)
	movq	8(%rsp), %rcx
	movq	(%rcx), %rcx
	movq	%rcx, 16(%rax)
	movq	8(%rsp), %rcx
	movq	8(%rcx), %rcx
	movq	%rcx, 24(%rax)
	movq	8(%rsp), %rcx
	movq	16(%rcx), %rcx
	movq	%rcx, 32(%rax)
	movq	8(%rsp), %rcx
	movq	24(%rcx), %rcx
	movq	%rcx, 40(%rax)
	movq	8(%rsp), %rdx
	movq	32(%rdx), %rdx
	movq	%rdx, 48(%rax)
	movq	8(%rsp), %rdx
	movq	40(%rdx), %rdx
	movq	%rdx, 56(%rax)
	movq	%rcx, 40(%rbx)
	movl	$64, %edi
	callq	_malloc
	movq	24(%rsp), %rcx
	movq	(%rcx), %rcx
	movq	%rcx, (%rax)
	movq	24(%rsp), %rcx
	movq	8(%rcx), %rcx
	movq	%rcx, 8(%rax)
	movq	8(%rsp), %rcx
	movq	(%rcx), %rcx
	movq	%rcx, 16(%rax)
	movq	8(%rsp), %rcx
	movq	8(%rcx), %rcx
	movq	%rcx, 24(%rax)
	movq	8(%rsp), %rcx
	movq	16(%rcx), %rcx
	movq	%rcx, 32(%rax)
	movq	8(%rsp), %rcx
	movq	24(%rcx), %rcx
	movq	%rcx, 40(%rax)
	movq	8(%rsp), %rcx
	movq	32(%rcx), %rcx
	movq	%rcx, 48(%rax)
	movq	8(%rsp), %rdx
	movq	40(%rdx), %rdx
	movq	%rdx, 56(%rax)
	movq	%rcx, 48(%rbx)
	movl	$64, %edi
	callq	_malloc
	movq	24(%rsp), %rcx
	movq	(%rcx), %rcx
	movq	%rcx, (%rax)
	movq	24(%rsp), %rcx
	movq	8(%rcx), %rcx
	movq	%rcx, 8(%rax)
	movq	8(%rsp), %rcx
	movq	(%rcx), %rcx
	movq	%rcx, 16(%rax)
	movq	8(%rsp), %rcx
	movq	8(%rcx), %rcx
	movq	%rcx, 24(%rax)
	movq	8(%rsp), %rcx
	movq	16(%rcx), %rcx
	movq	%rcx, 32(%rax)
	movq	8(%rsp), %rcx
	movq	24(%rcx), %rcx
	movq	%rcx, 40(%rax)
	movq	8(%rsp), %rcx
	movq	32(%rcx), %rcx
	movq	%rcx, 48(%rax)
	movq	8(%rsp), %rcx
	movq	40(%rcx), %rcx
	movq	%rcx, 56(%rax)
	movq	%rcx, 56(%rbx)
	movq	40(%rsp), %rax
	movq	(%rax), %rax
	movq	%rax, 64(%rbx)
	movq	40(%rsp), %rax
	movq	8(%rax), %rax
	movq	%rax, 72(%rbx)
	movq	40(%rsp), %rax
	movq	16(%rax), %rax
	movq	%rax, 80(%rbx)
	movq	40(%rsp), %rax
	movq	24(%rax), %rax
	movq	%rax, 88(%rbx)
	movq	40(%rsp), %rax
	movq	32(%rax), %rax
	movq	%rax, 96(%rbx)
	movq	16(%rbx), %rax
	movq	%rax, 16(%r15)
	movl	$104, %edi
	callq	_malloc
	movq	%rax, %rbx
	movl	$64, %edi
	callq	_malloc
	movq	24(%rsp), %rcx
	movq	(%rcx), %rcx
	movq	%rcx, (%rax)
	movq	24(%rsp), %rcx
	movq	8(%rcx), %rcx
	movq	%rcx, 8(%rax)
	movq	8(%rsp), %rcx
	movq	(%rcx), %rcx
	movq	%rcx, 16(%rax)
	movq	8(%rsp), %rcx
	movq	8(%rcx), %rcx
	movq	%rcx, 24(%rax)
	movq	8(%rsp), %rcx
	movq	16(%rcx), %rcx
	movq	%rcx, 32(%rax)
	movq	8(%rsp), %rcx
	movq	24(%rcx), %rcx
	movq	%rcx, 40(%rax)
	movq	8(%rsp), %rcx
	movq	32(%rcx), %rcx
	movq	%rcx, 48(%rax)
	movq	8(%rsp), %rcx
	movq	40(%rcx), %rcx
	movq	%rcx, 56(%rax)
	movq	(%rax), %rax
	movq	%rax, (%rbx)
	movl	$64, %edi
	callq	_malloc
	movq	24(%rsp), %rcx
	movq	(%rcx), %rcx
	movq	%rcx, (%rax)
	movq	24(%rsp), %rcx
	movq	8(%rcx), %rcx
	movq	%rcx, 8(%rax)
	movq	8(%rsp), %rcx
	movq	(%rcx), %rcx
	movq	%rcx, 16(%rax)
	movq	8(%rsp), %rcx
	movq	8(%rcx), %rcx
	movq	%rcx, 24(%rax)
	movq	8(%rsp), %rcx
	movq	16(%rcx), %rcx
	movq	%rcx, 32(%rax)
	movq	8(%rsp), %rcx
	movq	24(%rcx), %rcx
	movq	%rcx, 40(%rax)
	movq	8(%rsp), %rcx
	movq	32(%rcx), %rcx
	movq	%rcx, 48(%rax)
	movq	8(%rsp), %rcx
	movq	40(%rcx), %rcx
	movq	%rcx, 56(%rax)
	movq	8(%rax), %rax
	movq	%rax, 8(%rbx)
	movl	$64, %edi
	callq	_malloc
	movq	24(%rsp), %rcx
	movq	(%rcx), %rcx
	movq	%rcx, (%rax)
	movq	24(%rsp), %rcx
	movq	8(%rcx), %rcx
	movq	%rcx, 8(%rax)
	movq	8(%rsp), %rcx
	movq	(%rcx), %rcx
	movq	%rcx, 16(%rax)
	movq	8(%rsp), %rcx
	movq	8(%rcx), %rcx
	movq	%rcx, 24(%rax)
	movq	8(%rsp), %rcx
	movq	16(%rcx), %rcx
	movq	%rcx, 32(%rax)
	movq	8(%rsp), %rcx
	movq	24(%rcx), %rcx
	movq	%rcx, 40(%rax)
	movq	8(%rsp), %rcx
	movq	32(%rcx), %rcx
	movq	%rcx, 48(%rax)
	movq	8(%rsp), %rcx
	movq	40(%rcx), %rcx
	movq	%rcx, 56(%rax)
	movq	16(%rax), %rax
	movq	%rax, 16(%rbx)
	movl	$64, %edi
	callq	_malloc
	movq	24(%rsp), %rcx
	movq	(%rcx), %rcx
	movq	%rcx, (%rax)
	movq	24(%rsp), %rcx
	movq	8(%rcx), %rcx
	movq	%rcx, 8(%rax)
	movq	8(%rsp), %rcx
	movq	(%rcx), %rcx
	movq	%rcx, 16(%rax)
	movq	8(%rsp), %rcx
	movq	8(%rcx), %rcx
	movq	%rcx, 24(%rax)
	movq	8(%rsp), %rdx
	movq	16(%rdx), %rdx
	movq	%rdx, 32(%rax)
	movq	8(%rsp), %rdx
	movq	24(%rdx), %rdx
	movq	%rdx, 40(%rax)
	movq	8(%rsp), %rdx
	movq	32(%rdx), %rdx
	movq	%rdx, 48(%rax)
	movq	8(%rsp), %rdx
	movq	40(%rdx), %rdx
	movq	%rdx, 56(%rax)
	movq	%rcx, 24(%rbx)
	movl	$64, %edi
	callq	_malloc
	movq	24(%rsp), %rcx
	movq	(%rcx), %rcx
	movq	%rcx, (%rax)
	movq	24(%rsp), %rcx
	movq	8(%rcx), %rcx
	movq	%rcx, 8(%rax)
	movq	8(%rsp), %rcx
	movq	(%rcx), %rcx
	movq	%rcx, 16(%rax)
	movq	8(%rsp), %rcx
	movq	8(%rcx), %rcx
	movq	%rcx, 24(%rax)
	movq	8(%rsp), %rcx
	movq	16(%rcx), %rcx
	movq	%rcx, 32(%rax)
	movq	8(%rsp), %rdx
	movq	24(%rdx), %rdx
	movq	%rdx, 40(%rax)
	movq	8(%rsp), %rdx
	movq	32(%rdx), %rdx
	movq	%rdx, 48(%rax)
	movq	8(%rsp), %rdx
	movq	40(%rdx), %rdx
	movq	%rdx, 56(%rax)
	movq	%rcx, 32(%rbx)
	movl	$64, %edi
	callq	_malloc
	movq	24(%rsp), %rcx
	movq	(%rcx), %rcx
	movq	%rcx, (%rax)
	movq	24(%rsp), %rcx
	movq	8(%rcx), %rcx
	movq	%rcx, 8(%rax)
	movq	8(%rsp), %rcx
	movq	(%rcx), %rcx
	movq	%rcx, 16(%rax)
	movq	8(%rsp), %rcx
	movq	8(%rcx), %rcx
	movq	%rcx, 24(%rax)
	movq	8(%rsp), %rcx
	movq	16(%rcx), %rcx
	movq	%rcx, 32(%rax)
	movq	8(%rsp), %rcx
	movq	24(%rcx), %rcx
	movq	%rcx, 40(%rax)
	movq	8(%rsp), %rdx
	movq	32(%rdx), %rdx
	movq	%rdx, 48(%rax)
	movq	8(%rsp), %rdx
	movq	40(%rdx), %rdx
	movq	%rdx, 56(%rax)
	movq	%rcx, 40(%rbx)
	movl	$64, %edi
	callq	_malloc
	movq	24(%rsp), %rcx
	movq	(%rcx), %rcx
	movq	%rcx, (%rax)
	movq	24(%rsp), %rcx
	movq	8(%rcx), %rcx
	movq	%rcx, 8(%rax)
	movq	8(%rsp), %rcx
	movq	(%rcx), %rcx
	movq	%rcx, 16(%rax)
	movq	8(%rsp), %rcx
	movq	8(%rcx), %rcx
	movq	%rcx, 24(%rax)
	movq	8(%rsp), %rcx
	movq	16(%rcx), %rcx
	movq	%rcx, 32(%rax)
	movq	8(%rsp), %rcx
	movq	24(%rcx), %rcx
	movq	%rcx, 40(%rax)
	movq	8(%rsp), %rcx
	movq	32(%rcx), %rcx
	movq	%rcx, 48(%rax)
	movq	8(%rsp), %rdx
	movq	40(%rdx), %rdx
	movq	%rdx, 56(%rax)
	movq	%rcx, 48(%rbx)
	movl	$64, %edi
	callq	_malloc
	movq	24(%rsp), %rcx
	movq	(%rcx), %rcx
	movq	%rcx, (%rax)
	movq	24(%rsp), %rcx
	movq	8(%rcx), %rcx
	movq	%rcx, 8(%rax)
	movq	8(%rsp), %rcx
	movq	(%rcx), %rcx
	movq	%rcx, 16(%rax)
	movq	8(%rsp), %rcx
	movq	8(%rcx), %rcx
	movq	%rcx, 24(%rax)
	movq	8(%rsp), %rcx
	movq	16(%rcx), %rcx
	movq	%rcx, 32(%rax)
	movq	8(%rsp), %rcx
	movq	24(%rcx), %rcx
	movq	%rcx, 40(%rax)
	movq	8(%rsp), %rcx
	movq	32(%rcx), %rcx
	movq	%rcx, 48(%rax)
	movq	8(%rsp), %rcx
	movq	40(%rcx), %rcx
	movq	%rcx, 56(%rax)
	movq	%rcx, 56(%rbx)
	movq	40(%rsp), %rax
	movq	(%rax), %rax
	movq	%rax, 64(%rbx)
	movq	40(%rsp), %rax
	movq	8(%rax), %rax
	movq	%rax, 72(%rbx)
	movq	40(%rsp), %rax
	movq	16(%rax), %rax
	movq	%rax, 80(%rbx)
	movq	40(%rsp), %rax
	movq	24(%rax), %rax
	movq	%rax, 88(%rbx)
	movq	40(%rsp), %rax
	movq	32(%rax), %rax
	movq	%rax, 96(%rbx)
	movq	24(%rbx), %rax
	movq	%rax, 24(%r15)
	movl	$104, %edi
	callq	_malloc
	movq	%rax, %rbx
	movl	$64, %edi
	callq	_malloc
	movq	24(%rsp), %rcx
	movq	(%rcx), %rcx
	movq	%rcx, (%rax)
	movq	24(%rsp), %rcx
	movq	8(%rcx), %rcx
	movq	%rcx, 8(%rax)
	movq	8(%rsp), %rcx
	movq	(%rcx), %rcx
	movq	%rcx, 16(%rax)
	movq	8(%rsp), %rcx
	movq	8(%rcx), %rcx
	movq	%rcx, 24(%rax)
	movq	8(%rsp), %rcx
	movq	16(%rcx), %rcx
	movq	%rcx, 32(%rax)
	movq	8(%rsp), %rcx
	movq	24(%rcx), %rcx
	movq	%rcx, 40(%rax)
	movq	8(%rsp), %rcx
	movq	32(%rcx), %rcx
	movq	%rcx, 48(%rax)
	movq	8(%rsp), %rcx
	movq	40(%rcx), %rcx
	movq	%rcx, 56(%rax)
	movq	(%rax), %rax
	movq	%rax, (%rbx)
	movl	$64, %edi
	callq	_malloc
	movq	24(%rsp), %rcx
	movq	(%rcx), %rcx
	movq	%rcx, (%rax)
	movq	24(%rsp), %rcx
	movq	8(%rcx), %rcx
	movq	%rcx, 8(%rax)
	movq	8(%rsp), %rcx
	movq	(%rcx), %rcx
	movq	%rcx, 16(%rax)
	movq	8(%rsp), %rcx
	movq	8(%rcx), %rcx
	movq	%rcx, 24(%rax)
	movq	8(%rsp), %rcx
	movq	16(%rcx), %rcx
	movq	%rcx, 32(%rax)
	movq	8(%rsp), %rcx
	movq	24(%rcx), %rcx
	movq	%rcx, 40(%rax)
	movq	8(%rsp), %rcx
	movq	32(%rcx), %rcx
	movq	%rcx, 48(%rax)
	movq	8(%rsp), %rcx
	movq	40(%rcx), %rcx
	movq	%rcx, 56(%rax)
	movq	8(%rax), %rax
	movq	%rax, 8(%rbx)
	movl	$64, %edi
	callq	_malloc
	movq	24(%rsp), %rcx
	movq	(%rcx), %rcx
	movq	%rcx, (%rax)
	movq	24(%rsp), %rcx
	movq	8(%rcx), %rcx
	movq	%rcx, 8(%rax)
	movq	8(%rsp), %rcx
	movq	(%rcx), %rcx
	movq	%rcx, 16(%rax)
	movq	8(%rsp), %rcx
	movq	8(%rcx), %rcx
	movq	%rcx, 24(%rax)
	movq	8(%rsp), %rcx
	movq	16(%rcx), %rcx
	movq	%rcx, 32(%rax)
	movq	8(%rsp), %rcx
	movq	24(%rcx), %rcx
	movq	%rcx, 40(%rax)
	movq	8(%rsp), %rcx
	movq	32(%rcx), %rcx
	movq	%rcx, 48(%rax)
	movq	8(%rsp), %rcx
	movq	40(%rcx), %rcx
	movq	%rcx, 56(%rax)
	movq	16(%rax), %rax
	movq	%rax, 16(%rbx)
	movl	$64, %edi
	callq	_malloc
	movq	24(%rsp), %rcx
	movq	(%rcx), %rcx
	movq	%rcx, (%rax)
	movq	24(%rsp), %rcx
	movq	8(%rcx), %rcx
	movq	%rcx, 8(%rax)
	movq	8(%rsp), %rcx
	movq	(%rcx), %rcx
	movq	%rcx, 16(%rax)
	movq	8(%rsp), %rcx
	movq	8(%rcx), %rcx
	movq	%rcx, 24(%rax)
	movq	8(%rsp), %rdx
	movq	16(%rdx), %rdx
	movq	%rdx, 32(%rax)
	movq	8(%rsp), %rdx
	movq	24(%rdx), %rdx
	movq	%rdx, 40(%rax)
	movq	8(%rsp), %rdx
	movq	32(%rdx), %rdx
	movq	%rdx, 48(%rax)
	movq	8(%rsp), %rdx
	movq	40(%rdx), %rdx
	movq	%rdx, 56(%rax)
	movq	%rcx, 24(%rbx)
	movl	$64, %edi
	callq	_malloc
	movq	24(%rsp), %rcx
	movq	(%rcx), %rcx
	movq	%rcx, (%rax)
	movq	24(%rsp), %rcx
	movq	8(%rcx), %rcx
	movq	%rcx, 8(%rax)
	movq	8(%rsp), %rcx
	movq	(%rcx), %rcx
	movq	%rcx, 16(%rax)
	movq	8(%rsp), %rcx
	movq	8(%rcx), %rcx
	movq	%rcx, 24(%rax)
	movq	8(%rsp), %rcx
	movq	16(%rcx), %rcx
	movq	%rcx, 32(%rax)
	movq	8(%rsp), %rdx
	movq	24(%rdx), %rdx
	movq	%rdx, 40(%rax)
	movq	8(%rsp), %rdx
	movq	32(%rdx), %rdx
	movq	%rdx, 48(%rax)
	movq	8(%rsp), %rdx
	movq	40(%rdx), %rdx
	movq	%rdx, 56(%rax)
	movq	%rcx, 32(%rbx)
	movl	$64, %edi
	callq	_malloc
	movq	24(%rsp), %rcx
	movq	(%rcx), %rcx
	movq	%rcx, (%rax)
	movq	24(%rsp), %rcx
	movq	8(%rcx), %rcx
	movq	%rcx, 8(%rax)
	movq	8(%rsp), %rcx
	movq	(%rcx), %rcx
	movq	%rcx, 16(%rax)
	movq	8(%rsp), %rcx
	movq	8(%rcx), %rcx
	movq	%rcx, 24(%rax)
	movq	8(%rsp), %rcx
	movq	16(%rcx), %rcx
	movq	%rcx, 32(%rax)
	movq	8(%rsp), %rcx
	movq	24(%rcx), %rcx
	movq	%rcx, 40(%rax)
	movq	8(%rsp), %rdx
	movq	32(%rdx), %rdx
	movq	%rdx, 48(%rax)
	movq	8(%rsp), %rdx
	movq	40(%rdx), %rdx
	movq	%rdx, 56(%rax)
	movq	%rcx, 40(%rbx)
	movl	$64, %edi
	callq	_malloc
	movq	24(%rsp), %rcx
	movq	(%rcx), %rcx
	movq	%rcx, (%rax)
	movq	24(%rsp), %rcx
	movq	8(%rcx), %rcx
	movq	%rcx, 8(%rax)
	movq	8(%rsp), %rcx
	movq	(%rcx), %rcx
	movq	%rcx, 16(%rax)
	movq	8(%rsp), %rcx
	movq	8(%rcx), %rcx
	movq	%rcx, 24(%rax)
	movq	8(%rsp), %rcx
	movq	16(%rcx), %rcx
	movq	%rcx, 32(%rax)
	movq	8(%rsp), %rcx
	movq	24(%rcx), %rcx
	movq	%rcx, 40(%rax)
	movq	8(%rsp), %rcx
	movq	32(%rcx), %rcx
	movq	%rcx, 48(%rax)
	movq	8(%rsp), %rdx
	movq	40(%rdx), %rdx
	movq	%rdx, 56(%rax)
	movq	%rcx, 48(%rbx)
	movl	$64, %edi
	callq	_malloc
	movq	24(%rsp), %rcx
	movq	(%rcx), %rcx
	movq	%rcx, (%rax)
	movq	24(%rsp), %rcx
	movq	8(%rcx), %rcx
	movq	%rcx, 8(%rax)
	movq	8(%rsp), %rcx
	movq	(%rcx), %rcx
	movq	%rcx, 16(%rax)
	movq	8(%rsp), %rcx
	movq	8(%rcx), %rcx
	movq	%rcx, 24(%rax)
	movq	8(%rsp), %rcx
	movq	16(%rcx), %rcx
	movq	%rcx, 32(%rax)
	movq	8(%rsp), %rcx
	movq	24(%rcx), %rcx
	movq	%rcx, 40(%rax)
	movq	8(%rsp), %rcx
	movq	32(%rcx), %rcx
	movq	%rcx, 48(%rax)
	movq	8(%rsp), %rcx
	movq	40(%rcx), %rcx
	movq	%rcx, 56(%rax)
	movq	%rcx, 56(%rbx)
	movq	40(%rsp), %rax
	movq	(%rax), %rax
	movq	%rax, 64(%rbx)
	movq	40(%rsp), %rax
	movq	8(%rax), %rax
	movq	%rax, 72(%rbx)
	movq	40(%rsp), %rax
	movq	16(%rax), %rax
	movq	%rax, 80(%rbx)
	movq	40(%rsp), %rax
	movq	24(%rax), %rax
	movq	%rax, 88(%rbx)
	movq	40(%rsp), %rax
	movq	32(%rax), %rax
	movq	%rax, 96(%rbx)
	movq	32(%rbx), %rax
	movq	%rax, 32(%r15)
	movl	$104, %edi
	callq	_malloc
	movq	%rax, %rbx
	movl	$64, %edi
	callq	_malloc
	movq	24(%rsp), %rcx
	movq	(%rcx), %rcx
	movq	%rcx, (%rax)
	movq	24(%rsp), %rcx
	movq	8(%rcx), %rcx
	movq	%rcx, 8(%rax)
	movq	8(%rsp), %rcx
	movq	(%rcx), %rcx
	movq	%rcx, 16(%rax)
	movq	8(%rsp), %rcx
	movq	8(%rcx), %rcx
	movq	%rcx, 24(%rax)
	movq	8(%rsp), %rcx
	movq	16(%rcx), %rcx
	movq	%rcx, 32(%rax)
	movq	8(%rsp), %rcx
	movq	24(%rcx), %rcx
	movq	%rcx, 40(%rax)
	movq	8(%rsp), %rcx
	movq	32(%rcx), %rcx
	movq	%rcx, 48(%rax)
	movq	8(%rsp), %rcx
	movq	40(%rcx), %rcx
	movq	%rcx, 56(%rax)
	movq	(%rax), %rax
	movq	%rax, (%rbx)
	movl	$64, %edi
	callq	_malloc
	movq	24(%rsp), %rcx
	movq	(%rcx), %rcx
	movq	%rcx, (%rax)
	movq	24(%rsp), %rcx
	movq	8(%rcx), %rcx
	movq	%rcx, 8(%rax)
	movq	8(%rsp), %rcx
	movq	(%rcx), %rcx
	movq	%rcx, 16(%rax)
	movq	8(%rsp), %rcx
	movq	8(%rcx), %rcx
	movq	%rcx, 24(%rax)
	movq	8(%rsp), %rcx
	movq	16(%rcx), %rcx
	movq	%rcx, 32(%rax)
	movq	8(%rsp), %rcx
	movq	24(%rcx), %rcx
	movq	%rcx, 40(%rax)
	movq	8(%rsp), %rcx
	movq	32(%rcx), %rcx
	movq	%rcx, 48(%rax)
	movq	8(%rsp), %rcx
	movq	40(%rcx), %rcx
	movq	%rcx, 56(%rax)
	movq	8(%rax), %rax
	movq	%rax, 8(%rbx)
	movl	$64, %edi
	callq	_malloc
	movq	24(%rsp), %rcx
	movq	(%rcx), %rcx
	movq	%rcx, (%rax)
	movq	24(%rsp), %rcx
	movq	8(%rcx), %rcx
	movq	%rcx, 8(%rax)
	movq	8(%rsp), %rcx
	movq	(%rcx), %rcx
	movq	%rcx, 16(%rax)
	movq	8(%rsp), %rcx
	movq	8(%rcx), %rcx
	movq	%rcx, 24(%rax)
	movq	8(%rsp), %rcx
	movq	16(%rcx), %rcx
	movq	%rcx, 32(%rax)
	movq	8(%rsp), %rcx
	movq	24(%rcx), %rcx
	movq	%rcx, 40(%rax)
	movq	8(%rsp), %rcx
	movq	32(%rcx), %rcx
	movq	%rcx, 48(%rax)
	movq	8(%rsp), %rcx
	movq	40(%rcx), %rcx
	movq	%rcx, 56(%rax)
	movq	16(%rax), %rax
	movq	%rax, 16(%rbx)
	movl	$64, %edi
	callq	_malloc
	movq	24(%rsp), %rcx
	movq	(%rcx), %rcx
	movq	%rcx, (%rax)
	movq	24(%rsp), %rcx
	movq	8(%rcx), %rcx
	movq	%rcx, 8(%rax)
	movq	8(%rsp), %rcx
	movq	(%rcx), %rcx
	movq	%rcx, 16(%rax)
	movq	8(%rsp), %rcx
	movq	8(%rcx), %rcx
	movq	%rcx, 24(%rax)
	movq	8(%rsp), %rdx
	movq	16(%rdx), %rdx
	movq	%rdx, 32(%rax)
	movq	8(%rsp), %rdx
	movq	24(%rdx), %rdx
	movq	%rdx, 40(%rax)
	movq	8(%rsp), %rdx
	movq	32(%rdx), %rdx
	movq	%rdx, 48(%rax)
	movq	8(%rsp), %rdx
	movq	40(%rdx), %rdx
	movq	%rdx, 56(%rax)
	movq	%rcx, 24(%rbx)
	movl	$64, %edi
	callq	_malloc
	movq	24(%rsp), %rcx
	movq	(%rcx), %rcx
	movq	%rcx, (%rax)
	movq	24(%rsp), %rcx
	movq	8(%rcx), %rcx
	movq	%rcx, 8(%rax)
	movq	8(%rsp), %rcx
	movq	(%rcx), %rcx
	movq	%rcx, 16(%rax)
	movq	8(%rsp), %rcx
	movq	8(%rcx), %rcx
	movq	%rcx, 24(%rax)
	movq	8(%rsp), %rcx
	movq	16(%rcx), %rcx
	movq	%rcx, 32(%rax)
	movq	8(%rsp), %rdx
	movq	24(%rdx), %rdx
	movq	%rdx, 40(%rax)
	movq	8(%rsp), %rdx
	movq	32(%rdx), %rdx
	movq	%rdx, 48(%rax)
	movq	8(%rsp), %rdx
	movq	40(%rdx), %rdx
	movq	%rdx, 56(%rax)
	movq	%rcx, 32(%rbx)
	movl	$64, %edi
	callq	_malloc
	movq	24(%rsp), %rcx
	movq	(%rcx), %rcx
	movq	%rcx, (%rax)
	movq	24(%rsp), %rcx
	movq	8(%rcx), %rcx
	movq	%rcx, 8(%rax)
	movq	8(%rsp), %rcx
	movq	(%rcx), %rcx
	movq	%rcx, 16(%rax)
	movq	8(%rsp), %rcx
	movq	8(%rcx), %rcx
	movq	%rcx, 24(%rax)
	movq	8(%rsp), %rcx
	movq	16(%rcx), %rcx
	movq	%rcx, 32(%rax)
	movq	8(%rsp), %rcx
	movq	24(%rcx), %rcx
	movq	%rcx, 40(%rax)
	movq	8(%rsp), %rdx
	movq	32(%rdx), %rdx
	movq	%rdx, 48(%rax)
	movq	8(%rsp), %rdx
	movq	40(%rdx), %rdx
	movq	%rdx, 56(%rax)
	movq	%rcx, 40(%rbx)
	movl	$64, %edi
	callq	_malloc
	movq	24(%rsp), %rcx
	movq	(%rcx), %rcx
	movq	%rcx, (%rax)
	movq	24(%rsp), %rcx
	movq	8(%rcx), %rcx
	movq	%rcx, 8(%rax)
	movq	8(%rsp), %rcx
	movq	(%rcx), %rcx
	movq	%rcx, 16(%rax)
	movq	8(%rsp), %rcx
	movq	8(%rcx), %rcx
	movq	%rcx, 24(%rax)
	movq	8(%rsp), %rcx
	movq	16(%rcx), %rcx
	movq	%rcx, 32(%rax)
	movq	8(%rsp), %rcx
	movq	24(%rcx), %rcx
	movq	%rcx, 40(%rax)
	movq	8(%rsp), %rcx
	movq	32(%rcx), %rcx
	movq	%rcx, 48(%rax)
	movq	8(%rsp), %rdx
	movq	40(%rdx), %rdx
	movq	%rdx, 56(%rax)
	movq	%rcx, 48(%rbx)
	movl	$64, %edi
	callq	_malloc
	movq	24(%rsp), %rcx
	movq	(%rcx), %rcx
	movq	%rcx, (%rax)
	movq	24(%rsp), %rcx
	movq	8(%rcx), %rcx
	movq	%rcx, 8(%rax)
	movq	8(%rsp), %rcx
	movq	(%rcx), %rcx
	movq	%rcx, 16(%rax)
	movq	8(%rsp), %rcx
	movq	8(%rcx), %rcx
	movq	%rcx, 24(%rax)
	movq	8(%rsp), %rcx
	movq	16(%rcx), %rcx
	movq	%rcx, 32(%rax)
	movq	8(%rsp), %rcx
	movq	24(%rcx), %rcx
	movq	%rcx, 40(%rax)
	movq	8(%rsp), %rcx
	movq	32(%rcx), %rcx
	movq	%rcx, 48(%rax)
	movq	8(%rsp), %rcx
	movq	40(%rcx), %rcx
	movq	%rcx, 56(%rax)
	movq	%rcx, 56(%rbx)
	movq	40(%rsp), %rax
	movq	(%rax), %rax
	movq	%rax, 64(%rbx)
	movq	40(%rsp), %rax
	movq	8(%rax), %rax
	movq	%rax, 72(%rbx)
	movq	40(%rsp), %rax
	movq	16(%rax), %rax
	movq	%rax, 80(%rbx)
	movq	40(%rsp), %rax
	movq	24(%rax), %rax
	movq	%rax, 88(%rbx)
	movq	40(%rsp), %rax
	movq	32(%rax), %rax
	movq	%rax, 96(%rbx)
	movq	40(%rbx), %rax
	movq	%rax, 40(%r15)
	movl	$104, %edi
	callq	_malloc
	movq	%rax, %rbx
	movl	$64, %edi
	callq	_malloc
	movq	24(%rsp), %rcx
	movq	(%rcx), %rcx
	movq	%rcx, (%rax)
	movq	24(%rsp), %rcx
	movq	8(%rcx), %rcx
	movq	%rcx, 8(%rax)
	movq	8(%rsp), %rcx
	movq	(%rcx), %rcx
	movq	%rcx, 16(%rax)
	movq	8(%rsp), %rcx
	movq	8(%rcx), %rcx
	movq	%rcx, 24(%rax)
	movq	8(%rsp), %rcx
	movq	16(%rcx), %rcx
	movq	%rcx, 32(%rax)
	movq	8(%rsp), %rcx
	movq	24(%rcx), %rcx
	movq	%rcx, 40(%rax)
	movq	8(%rsp), %rcx
	movq	32(%rcx), %rcx
	movq	%rcx, 48(%rax)
	movq	8(%rsp), %rcx
	movq	40(%rcx), %rcx
	movq	%rcx, 56(%rax)
	movq	(%rax), %rax
	movq	%rax, (%rbx)
	movl	$64, %edi
	callq	_malloc
	movq	24(%rsp), %rcx
	movq	(%rcx), %rcx
	movq	%rcx, (%rax)
	movq	24(%rsp), %rcx
	movq	8(%rcx), %rcx
	movq	%rcx, 8(%rax)
	movq	8(%rsp), %rcx
	movq	(%rcx), %rcx
	movq	%rcx, 16(%rax)
	movq	8(%rsp), %rcx
	movq	8(%rcx), %rcx
	movq	%rcx, 24(%rax)
	movq	8(%rsp), %rcx
	movq	16(%rcx), %rcx
	movq	%rcx, 32(%rax)
	movq	8(%rsp), %rcx
	movq	24(%rcx), %rcx
	movq	%rcx, 40(%rax)
	movq	8(%rsp), %rcx
	movq	32(%rcx), %rcx
	movq	%rcx, 48(%rax)
	movq	8(%rsp), %rcx
	movq	40(%rcx), %rcx
	movq	%rcx, 56(%rax)
	movq	8(%rax), %rax
	movq	%rax, 8(%rbx)
	movl	$64, %edi
	callq	_malloc
	movq	24(%rsp), %rcx
	movq	(%rcx), %rcx
	movq	%rcx, (%rax)
	movq	24(%rsp), %rcx
	movq	8(%rcx), %rcx
	movq	%rcx, 8(%rax)
	movq	8(%rsp), %rcx
	movq	(%rcx), %rcx
	movq	%rcx, 16(%rax)
	movq	8(%rsp), %rcx
	movq	8(%rcx), %rcx
	movq	%rcx, 24(%rax)
	movq	8(%rsp), %rcx
	movq	16(%rcx), %rcx
	movq	%rcx, 32(%rax)
	movq	8(%rsp), %rcx
	movq	24(%rcx), %rcx
	movq	%rcx, 40(%rax)
	movq	8(%rsp), %rcx
	movq	32(%rcx), %rcx
	movq	%rcx, 48(%rax)
	movq	8(%rsp), %rcx
	movq	40(%rcx), %rcx
	movq	%rcx, 56(%rax)
	movq	16(%rax), %rax
	movq	%rax, 16(%rbx)
	movl	$64, %edi
	callq	_malloc
	movq	24(%rsp), %rcx
	movq	(%rcx), %rcx
	movq	%rcx, (%rax)
	movq	24(%rsp), %rcx
	movq	8(%rcx), %rcx
	movq	%rcx, 8(%rax)
	movq	8(%rsp), %rcx
	movq	(%rcx), %rcx
	movq	%rcx, 16(%rax)
	movq	8(%rsp), %rcx
	movq	8(%rcx), %rcx
	movq	%rcx, 24(%rax)
	movq	8(%rsp), %rdx
	movq	16(%rdx), %rdx
	movq	%rdx, 32(%rax)
	movq	8(%rsp), %rdx
	movq	24(%rdx), %rdx
	movq	%rdx, 40(%rax)
	movq	8(%rsp), %rdx
	movq	32(%rdx), %rdx
	movq	%rdx, 48(%rax)
	movq	8(%rsp), %rdx
	movq	40(%rdx), %rdx
	movq	%rdx, 56(%rax)
	movq	%rcx, 24(%rbx)
	movl	$64, %edi
	callq	_malloc
	movq	24(%rsp), %rcx
	movq	(%rcx), %rcx
	movq	%rcx, (%rax)
	movq	24(%rsp), %rcx
	movq	8(%rcx), %rcx
	movq	%rcx, 8(%rax)
	movq	8(%rsp), %rcx
	movq	(%rcx), %rcx
	movq	%rcx, 16(%rax)
	movq	8(%rsp), %rcx
	movq	8(%rcx), %rcx
	movq	%rcx, 24(%rax)
	movq	8(%rsp), %rcx
	movq	16(%rcx), %rcx
	movq	%rcx, 32(%rax)
	movq	8(%rsp), %rdx
	movq	24(%rdx), %rdx
	movq	%rdx, 40(%rax)
	movq	8(%rsp), %rdx
	movq	32(%rdx), %rdx
	movq	%rdx, 48(%rax)
	movq	8(%rsp), %rdx
	movq	40(%rdx), %rdx
	movq	%rdx, 56(%rax)
	movq	%rcx, 32(%rbx)
	movl	$64, %edi
	callq	_malloc
	movq	24(%rsp), %rcx
	movq	(%rcx), %rcx
	movq	%rcx, (%rax)
	movq	24(%rsp), %rcx
	movq	8(%rcx), %rcx
	movq	%rcx, 8(%rax)
	movq	8(%rsp), %rcx
	movq	(%rcx), %rcx
	movq	%rcx, 16(%rax)
	movq	8(%rsp), %rcx
	movq	8(%rcx), %rcx
	movq	%rcx, 24(%rax)
	movq	8(%rsp), %rcx
	movq	16(%rcx), %rcx
	movq	%rcx, 32(%rax)
	movq	8(%rsp), %rcx
	movq	24(%rcx), %rcx
	movq	%rcx, 40(%rax)
	movq	8(%rsp), %rdx
	movq	32(%rdx), %rdx
	movq	%rdx, 48(%rax)
	movq	8(%rsp), %rdx
	movq	40(%rdx), %rdx
	movq	%rdx, 56(%rax)
	movq	%rcx, 40(%rbx)
	movl	$64, %edi
	callq	_malloc
	movq	24(%rsp), %rcx
	movq	(%rcx), %rcx
	movq	%rcx, (%rax)
	movq	24(%rsp), %rcx
	movq	8(%rcx), %rcx
	movq	%rcx, 8(%rax)
	movq	8(%rsp), %rcx
	movq	(%rcx), %rcx
	movq	%rcx, 16(%rax)
	movq	8(%rsp), %rcx
	movq	8(%rcx), %rcx
	movq	%rcx, 24(%rax)
	movq	8(%rsp), %rcx
	movq	16(%rcx), %rcx
	movq	%rcx, 32(%rax)
	movq	8(%rsp), %rcx
	movq	24(%rcx), %rcx
	movq	%rcx, 40(%rax)
	movq	8(%rsp), %rcx
	movq	32(%rcx), %rcx
	movq	%rcx, 48(%rax)
	movq	8(%rsp), %rdx
	movq	40(%rdx), %rdx
	movq	%rdx, 56(%rax)
	movq	%rcx, 48(%rbx)
	movl	$64, %edi
	callq	_malloc
	movq	24(%rsp), %rcx
	movq	(%rcx), %rcx
	movq	%rcx, (%rax)
	movq	24(%rsp), %rcx
	movq	8(%rcx), %rcx
	movq	%rcx, 8(%rax)
	movq	8(%rsp), %rcx
	movq	(%rcx), %rcx
	movq	%rcx, 16(%rax)
	movq	8(%rsp), %rcx
	movq	8(%rcx), %rcx
	movq	%rcx, 24(%rax)
	movq	8(%rsp), %rcx
	movq	16(%rcx), %rcx
	movq	%rcx, 32(%rax)
	movq	8(%rsp), %rcx
	movq	24(%rcx), %rcx
	movq	%rcx, 40(%rax)
	movq	8(%rsp), %rcx
	movq	32(%rcx), %rcx
	movq	%rcx, 48(%rax)
	movq	8(%rsp), %rcx
	movq	40(%rcx), %rcx
	movq	%rcx, 56(%rax)
	movq	%rcx, 56(%rbx)
	movq	40(%rsp), %rax
	movq	(%rax), %rax
	movq	%rax, 64(%rbx)
	movq	40(%rsp), %rax
	movq	8(%rax), %rax
	movq	%rax, 72(%rbx)
	movq	40(%rsp), %rax
	movq	16(%rax), %rax
	movq	%rax, 80(%rbx)
	movq	40(%rsp), %rax
	movq	24(%rax), %rax
	movq	%rax, 88(%rbx)
	movq	40(%rsp), %rax
	movq	32(%rax), %rax
	movq	%rax, 96(%rbx)
	movq	48(%rbx), %rax
	movq	%rax, 48(%r15)
	movl	$104, %edi
	callq	_malloc
	movq	%rax, %rbx
	movl	$64, %edi
	callq	_malloc
	movq	24(%rsp), %rcx
	movq	(%rcx), %rcx
	movq	%rcx, (%rax)
	movq	24(%rsp), %rcx
	movq	8(%rcx), %rcx
	movq	%rcx, 8(%rax)
	movq	8(%rsp), %rcx
	movq	(%rcx), %rcx
	movq	%rcx, 16(%rax)
	movq	8(%rsp), %rcx
	movq	8(%rcx), %rcx
	movq	%rcx, 24(%rax)
	movq	8(%rsp), %rcx
	movq	16(%rcx), %rcx
	movq	%rcx, 32(%rax)
	movq	8(%rsp), %rcx
	movq	24(%rcx), %rcx
	movq	%rcx, 40(%rax)
	movq	8(%rsp), %rcx
	movq	32(%rcx), %rcx
	movq	%rcx, 48(%rax)
	movq	8(%rsp), %rcx
	movq	40(%rcx), %rcx
	movq	%rcx, 56(%rax)
	movq	(%rax), %rax
	movq	%rax, (%rbx)
	movl	$64, %edi
	callq	_malloc
	movq	24(%rsp), %rcx
	movq	(%rcx), %rcx
	movq	%rcx, (%rax)
	movq	24(%rsp), %rcx
	movq	8(%rcx), %rcx
	movq	%rcx, 8(%rax)
	movq	8(%rsp), %rcx
	movq	(%rcx), %rcx
	movq	%rcx, 16(%rax)
	movq	8(%rsp), %rcx
	movq	8(%rcx), %rcx
	movq	%rcx, 24(%rax)
	movq	8(%rsp), %rcx
	movq	16(%rcx), %rcx
	movq	%rcx, 32(%rax)
	movq	8(%rsp), %rcx
	movq	24(%rcx), %rcx
	movq	%rcx, 40(%rax)
	movq	8(%rsp), %rcx
	movq	32(%rcx), %rcx
	movq	%rcx, 48(%rax)
	movq	8(%rsp), %rcx
	movq	40(%rcx), %rcx
	movq	%rcx, 56(%rax)
	movq	8(%rax), %rax
	movq	%rax, 8(%rbx)
	movl	$64, %edi
	callq	_malloc
	movq	24(%rsp), %rcx
	movq	(%rcx), %rcx
	movq	%rcx, (%rax)
	movq	24(%rsp), %rcx
	movq	8(%rcx), %rcx
	movq	%rcx, 8(%rax)
	movq	8(%rsp), %rcx
	movq	(%rcx), %rcx
	movq	%rcx, 16(%rax)
	movq	8(%rsp), %rcx
	movq	8(%rcx), %rcx
	movq	%rcx, 24(%rax)
	movq	8(%rsp), %rcx
	movq	16(%rcx), %rcx
	movq	%rcx, 32(%rax)
	movq	8(%rsp), %rcx
	movq	24(%rcx), %rcx
	movq	%rcx, 40(%rax)
	movq	8(%rsp), %rcx
	movq	32(%rcx), %rcx
	movq	%rcx, 48(%rax)
	movq	8(%rsp), %rcx
	movq	40(%rcx), %rcx
	movq	%rcx, 56(%rax)
	movq	16(%rax), %rax
	movq	%rax, 16(%rbx)
	movl	$64, %edi
	callq	_malloc
	movq	24(%rsp), %rcx
	movq	(%rcx), %rcx
	movq	%rcx, (%rax)
	movq	24(%rsp), %rcx
	movq	8(%rcx), %rcx
	movq	%rcx, 8(%rax)
	movq	8(%rsp), %rcx
	movq	(%rcx), %rcx
	movq	%rcx, 16(%rax)
	movq	8(%rsp), %rcx
	movq	8(%rcx), %rcx
	movq	%rcx, 24(%rax)
	movq	8(%rsp), %rdx
	movq	16(%rdx), %rdx
	movq	%rdx, 32(%rax)
	movq	8(%rsp), %rdx
	movq	24(%rdx), %rdx
	movq	%rdx, 40(%rax)
	movq	8(%rsp), %rdx
	movq	32(%rdx), %rdx
	movq	%rdx, 48(%rax)
	movq	8(%rsp), %rdx
	movq	40(%rdx), %rdx
	movq	%rdx, 56(%rax)
	movq	%rcx, 24(%rbx)
	movl	$64, %edi
	callq	_malloc
	movq	24(%rsp), %rcx
	movq	(%rcx), %rcx
	movq	%rcx, (%rax)
	movq	24(%rsp), %rcx
	movq	8(%rcx), %rcx
	movq	%rcx, 8(%rax)
	movq	8(%rsp), %rcx
	movq	(%rcx), %rcx
	movq	%rcx, 16(%rax)
	movq	8(%rsp), %rcx
	movq	8(%rcx), %rcx
	movq	%rcx, 24(%rax)
	movq	8(%rsp), %rcx
	movq	16(%rcx), %rcx
	movq	%rcx, 32(%rax)
	movq	8(%rsp), %rdx
	movq	24(%rdx), %rdx
	movq	%rdx, 40(%rax)
	movq	8(%rsp), %rdx
	movq	32(%rdx), %rdx
	movq	%rdx, 48(%rax)
	movq	8(%rsp), %rdx
	movq	40(%rdx), %rdx
	movq	%rdx, 56(%rax)
	movq	%rcx, 32(%rbx)
	movl	$64, %edi
	callq	_malloc
	movq	24(%rsp), %rcx
	movq	(%rcx), %rcx
	movq	%rcx, (%rax)
	movq	24(%rsp), %rcx
	movq	8(%rcx), %rcx
	movq	%rcx, 8(%rax)
	movq	8(%rsp), %rcx
	movq	(%rcx), %rcx
	movq	%rcx, 16(%rax)
	movq	8(%rsp), %rcx
	movq	8(%rcx), %rcx
	movq	%rcx, 24(%rax)
	movq	8(%rsp), %rcx
	movq	16(%rcx), %rcx
	movq	%rcx, 32(%rax)
	movq	8(%rsp), %rcx
	movq	24(%rcx), %rcx
	movq	%rcx, 40(%rax)
	movq	8(%rsp), %rdx
	movq	32(%rdx), %rdx
	movq	%rdx, 48(%rax)
	movq	8(%rsp), %rdx
	movq	40(%rdx), %rdx
	movq	%rdx, 56(%rax)
	movq	%rcx, 40(%rbx)
	movl	$64, %edi
	callq	_malloc
	movq	24(%rsp), %rcx
	movq	(%rcx), %rcx
	movq	%rcx, (%rax)
	movq	24(%rsp), %rcx
	movq	8(%rcx), %rcx
	movq	%rcx, 8(%rax)
	movq	8(%rsp), %rcx
	movq	(%rcx), %rcx
	movq	%rcx, 16(%rax)
	movq	8(%rsp), %rcx
	movq	8(%rcx), %rcx
	movq	%rcx, 24(%rax)
	movq	8(%rsp), %rcx
	movq	16(%rcx), %rcx
	movq	%rcx, 32(%rax)
	movq	8(%rsp), %rcx
	movq	24(%rcx), %rcx
	movq	%rcx, 40(%rax)
	movq	8(%rsp), %rcx
	movq	32(%rcx), %rcx
	movq	%rcx, 48(%rax)
	movq	8(%rsp), %rdx
	movq	40(%rdx), %rdx
	movq	%rdx, 56(%rax)
	movq	%rcx, 48(%rbx)
	movl	$64, %edi
	callq	_malloc
	movq	24(%rsp), %rcx
	movq	(%rcx), %rcx
	movq	%rcx, (%rax)
	movq	24(%rsp), %rcx
	movq	8(%rcx), %rcx
	movq	%rcx, 8(%rax)
	movq	8(%rsp), %rcx
	movq	(%rcx), %rcx
	movq	%rcx, 16(%rax)
	movq	8(%rsp), %rcx
	movq	8(%rcx), %rcx
	movq	%rcx, 24(%rax)
	movq	8(%rsp), %rcx
	movq	16(%rcx), %rcx
	movq	%rcx, 32(%rax)
	movq	8(%rsp), %rcx
	movq	24(%rcx), %rcx
	movq	%rcx, 40(%rax)
	movq	8(%rsp), %rcx
	movq	32(%rcx), %rcx
	movq	%rcx, 48(%rax)
	movq	8(%rsp), %rcx
	movq	40(%rcx), %rcx
	movq	%rcx, 56(%rax)
	movq	%rcx, 56(%rbx)
	movq	40(%rsp), %rax
	movq	(%rax), %rax
	movq	%rax, 64(%rbx)
	movq	40(%rsp), %rax
	movq	8(%rax), %rax
	movq	%rax, 72(%rbx)
	movq	40(%rsp), %rax
	movq	16(%rax), %rax
	movq	%rax, 80(%rbx)
	movq	40(%rsp), %rax
	movq	24(%rax), %rax
	movq	%rax, 88(%rbx)
	movq	40(%rsp), %rax
	movq	32(%rax), %rax
	movq	%rax, 96(%rbx)
	movq	56(%rbx), %rax
	movq	%rax, 56(%r15)
	movl	$104, %edi
	callq	_malloc
	movq	%rax, %rbx
	movl	$64, %edi
	callq	_malloc
	movq	24(%rsp), %rcx
	movq	(%rcx), %rcx
	movq	%rcx, (%rax)
	movq	24(%rsp), %rcx
	movq	8(%rcx), %rcx
	movq	%rcx, 8(%rax)
	movq	8(%rsp), %rcx
	movq	(%rcx), %rcx
	movq	%rcx, 16(%rax)
	movq	8(%rsp), %rcx
	movq	8(%rcx), %rcx
	movq	%rcx, 24(%rax)
	movq	8(%rsp), %rcx
	movq	16(%rcx), %rcx
	movq	%rcx, 32(%rax)
	movq	8(%rsp), %rcx
	movq	24(%rcx), %rcx
	movq	%rcx, 40(%rax)
	movq	8(%rsp), %rcx
	movq	32(%rcx), %rcx
	movq	%rcx, 48(%rax)
	movq	8(%rsp), %rcx
	movq	40(%rcx), %rcx
	movq	%rcx, 56(%rax)
	movq	(%rax), %rax
	movq	%rax, (%rbx)
	movl	$64, %edi
	callq	_malloc
	movq	24(%rsp), %rcx
	movq	(%rcx), %rcx
	movq	%rcx, (%rax)
	movq	24(%rsp), %rcx
	movq	8(%rcx), %rcx
	movq	%rcx, 8(%rax)
	movq	8(%rsp), %rcx
	movq	(%rcx), %rcx
	movq	%rcx, 16(%rax)
	movq	8(%rsp), %rcx
	movq	8(%rcx), %rcx
	movq	%rcx, 24(%rax)
	movq	8(%rsp), %rcx
	movq	16(%rcx), %rcx
	movq	%rcx, 32(%rax)
	movq	8(%rsp), %rcx
	movq	24(%rcx), %rcx
	movq	%rcx, 40(%rax)
	movq	8(%rsp), %rcx
	movq	32(%rcx), %rcx
	movq	%rcx, 48(%rax)
	movq	8(%rsp), %rcx
	movq	40(%rcx), %rcx
	movq	%rcx, 56(%rax)
	movq	8(%rax), %rax
	movq	%rax, 8(%rbx)
	movl	$64, %edi
	callq	_malloc
	movq	24(%rsp), %rcx
	movq	(%rcx), %rcx
	movq	%rcx, (%rax)
	movq	24(%rsp), %rcx
	movq	8(%rcx), %rcx
	movq	%rcx, 8(%rax)
	movq	8(%rsp), %rcx
	movq	(%rcx), %rcx
	movq	%rcx, 16(%rax)
	movq	8(%rsp), %rcx
	movq	8(%rcx), %rcx
	movq	%rcx, 24(%rax)
	movq	8(%rsp), %rcx
	movq	16(%rcx), %rcx
	movq	%rcx, 32(%rax)
	movq	8(%rsp), %rcx
	movq	24(%rcx), %rcx
	movq	%rcx, 40(%rax)
	movq	8(%rsp), %rcx
	movq	32(%rcx), %rcx
	movq	%rcx, 48(%rax)
	movq	8(%rsp), %rcx
	movq	40(%rcx), %rcx
	movq	%rcx, 56(%rax)
	movq	16(%rax), %rax
	movq	%rax, 16(%rbx)
	movl	$64, %edi
	callq	_malloc
	movq	24(%rsp), %rcx
	movq	(%rcx), %rcx
	movq	%rcx, (%rax)
	movq	24(%rsp), %rcx
	movq	8(%rcx), %rcx
	movq	%rcx, 8(%rax)
	movq	8(%rsp), %rcx
	movq	(%rcx), %rcx
	movq	%rcx, 16(%rax)
	movq	8(%rsp), %rcx
	movq	8(%rcx), %rcx
	movq	%rcx, 24(%rax)
	movq	8(%rsp), %rdx
	movq	16(%rdx), %rdx
	movq	%rdx, 32(%rax)
	movq	8(%rsp), %rdx
	movq	24(%rdx), %rdx
	movq	%rdx, 40(%rax)
	movq	8(%rsp), %rdx
	movq	32(%rdx), %rdx
	movq	%rdx, 48(%rax)
	movq	8(%rsp), %rdx
	movq	40(%rdx), %rdx
	movq	%rdx, 56(%rax)
	movq	%rcx, 24(%rbx)
	movl	$64, %edi
	callq	_malloc
	movq	24(%rsp), %rcx
	movq	(%rcx), %rcx
	movq	%rcx, (%rax)
	movq	24(%rsp), %rcx
	movq	8(%rcx), %rcx
	movq	%rcx, 8(%rax)
	movq	8(%rsp), %rcx
	movq	(%rcx), %rcx
	movq	%rcx, 16(%rax)
	movq	8(%rsp), %rcx
	movq	8(%rcx), %rcx
	movq	%rcx, 24(%rax)
	movq	8(%rsp), %rcx
	movq	16(%rcx), %rcx
	movq	%rcx, 32(%rax)
	movq	8(%rsp), %rdx
	movq	24(%rdx), %rdx
	movq	%rdx, 40(%rax)
	movq	8(%rsp), %rdx
	movq	32(%rdx), %rdx
	movq	%rdx, 48(%rax)
	movq	8(%rsp), %rdx
	movq	40(%rdx), %rdx
	movq	%rdx, 56(%rax)
	movq	%rcx, 32(%rbx)
	movl	$64, %edi
	callq	_malloc
	movq	24(%rsp), %rcx
	movq	(%rcx), %rcx
	movq	%rcx, (%rax)
	movq	24(%rsp), %rcx
	movq	8(%rcx), %rcx
	movq	%rcx, 8(%rax)
	movq	8(%rsp), %rcx
	movq	(%rcx), %rcx
	movq	%rcx, 16(%rax)
	movq	8(%rsp), %rcx
	movq	8(%rcx), %rcx
	movq	%rcx, 24(%rax)
	movq	8(%rsp), %rcx
	movq	16(%rcx), %rcx
	movq	%rcx, 32(%rax)
	movq	8(%rsp), %rcx
	movq	24(%rcx), %rcx
	movq	%rcx, 40(%rax)
	movq	8(%rsp), %rdx
	movq	32(%rdx), %rdx
	movq	%rdx, 48(%rax)
	movq	8(%rsp), %rdx
	movq	40(%rdx), %rdx
	movq	%rdx, 56(%rax)
	movq	%rcx, 40(%rbx)
	movl	$64, %edi
	callq	_malloc
	movq	24(%rsp), %rcx
	movq	(%rcx), %rcx
	movq	%rcx, (%rax)
	movq	24(%rsp), %rcx
	movq	8(%rcx), %rcx
	movq	%rcx, 8(%rax)
	movq	8(%rsp), %rcx
	movq	(%rcx), %rcx
	movq	%rcx, 16(%rax)
	movq	8(%rsp), %rcx
	movq	8(%rcx), %rcx
	movq	%rcx, 24(%rax)
	movq	8(%rsp), %rcx
	movq	16(%rcx), %rcx
	movq	%rcx, 32(%rax)
	movq	8(%rsp), %rcx
	movq	24(%rcx), %rcx
	movq	%rcx, 40(%rax)
	movq	8(%rsp), %rcx
	movq	32(%rcx), %rcx
	movq	%rcx, 48(%rax)
	movq	8(%rsp), %rdx
	movq	40(%rdx), %rdx
	movq	%rdx, 56(%rax)
	movq	%rcx, 48(%rbx)
	movl	$64, %edi
	callq	_malloc
	movq	24(%rsp), %rcx
	movq	(%rcx), %rcx
	movq	%rcx, (%rax)
	movq	24(%rsp), %rcx
	movq	8(%rcx), %rcx
	movq	%rcx, 8(%rax)
	movq	8(%rsp), %rcx
	movq	(%rcx), %rcx
	movq	%rcx, 16(%rax)
	movq	8(%rsp), %rcx
	movq	8(%rcx), %rcx
	movq	%rcx, 24(%rax)
	movq	8(%rsp), %rcx
	movq	16(%rcx), %rcx
	movq	%rcx, 32(%rax)
	movq	8(%rsp), %rcx
	movq	24(%rcx), %rcx
	movq	%rcx, 40(%rax)
	movq	8(%rsp), %rcx
	movq	32(%rcx), %rcx
	movq	%rcx, 48(%rax)
	movq	8(%rsp), %rcx
	movq	40(%rcx), %rcx
	movq	%rcx, 56(%rax)
	movq	%rcx, 56(%rbx)
	movq	40(%rsp), %rax
	movq	(%rax), %rax
	movq	%rax, 64(%rbx)
	movq	40(%rsp), %rcx
	movq	8(%rcx), %rcx
	movq	%rcx, 72(%rbx)
	movq	40(%rsp), %rcx
	movq	16(%rcx), %rcx
	movq	%rcx, 80(%rbx)
	movq	40(%rsp), %rcx
	movq	24(%rcx), %rcx
	movq	%rcx, 88(%rbx)
	movq	40(%rsp), %rcx
	movq	32(%rcx), %rcx
	movq	%rcx, 96(%rbx)
	movq	%rax, 64(%r15)
	movl	$104, %edi
	callq	_malloc
	movq	%rax, %rbx
	movl	$64, %edi
	callq	_malloc
	movq	24(%rsp), %rcx
	movq	(%rcx), %rcx
	movq	%rcx, (%rax)
	movq	24(%rsp), %rcx
	movq	8(%rcx), %rcx
	movq	%rcx, 8(%rax)
	movq	8(%rsp), %rcx
	movq	(%rcx), %rcx
	movq	%rcx, 16(%rax)
	movq	8(%rsp), %rcx
	movq	8(%rcx), %rcx
	movq	%rcx, 24(%rax)
	movq	8(%rsp), %rcx
	movq	16(%rcx), %rcx
	movq	%rcx, 32(%rax)
	movq	8(%rsp), %rcx
	movq	24(%rcx), %rcx
	movq	%rcx, 40(%rax)
	movq	8(%rsp), %rcx
	movq	32(%rcx), %rcx
	movq	%rcx, 48(%rax)
	movq	8(%rsp), %rcx
	movq	40(%rcx), %rcx
	movq	%rcx, 56(%rax)
	movq	(%rax), %rax
	movq	%rax, (%rbx)
	movl	$64, %edi
	callq	_malloc
	movq	24(%rsp), %rcx
	movq	(%rcx), %rcx
	movq	%rcx, (%rax)
	movq	24(%rsp), %rcx
	movq	8(%rcx), %rcx
	movq	%rcx, 8(%rax)
	movq	8(%rsp), %rcx
	movq	(%rcx), %rcx
	movq	%rcx, 16(%rax)
	movq	8(%rsp), %rcx
	movq	8(%rcx), %rcx
	movq	%rcx, 24(%rax)
	movq	8(%rsp), %rcx
	movq	16(%rcx), %rcx
	movq	%rcx, 32(%rax)
	movq	8(%rsp), %rcx
	movq	24(%rcx), %rcx
	movq	%rcx, 40(%rax)
	movq	8(%rsp), %rcx
	movq	32(%rcx), %rcx
	movq	%rcx, 48(%rax)
	movq	8(%rsp), %rcx
	movq	40(%rcx), %rcx
	movq	%rcx, 56(%rax)
	movq	8(%rax), %rax
	movq	%rax, 8(%rbx)
	movl	$64, %edi
	callq	_malloc
	movq	24(%rsp), %rcx
	movq	(%rcx), %rcx
	movq	%rcx, (%rax)
	movq	24(%rsp), %rcx
	movq	8(%rcx), %rcx
	movq	%rcx, 8(%rax)
	movq	8(%rsp), %rcx
	movq	(%rcx), %rcx
	movq	%rcx, 16(%rax)
	movq	8(%rsp), %rcx
	movq	8(%rcx), %rcx
	movq	%rcx, 24(%rax)
	movq	8(%rsp), %rcx
	movq	16(%rcx), %rcx
	movq	%rcx, 32(%rax)
	movq	8(%rsp), %rcx
	movq	24(%rcx), %rcx
	movq	%rcx, 40(%rax)
	movq	8(%rsp), %rcx
	movq	32(%rcx), %rcx
	movq	%rcx, 48(%rax)
	movq	8(%rsp), %rcx
	movq	40(%rcx), %rcx
	movq	%rcx, 56(%rax)
	movq	16(%rax), %rax
	movq	%rax, 16(%rbx)
	movl	$64, %edi
	callq	_malloc
	movq	24(%rsp), %rcx
	movq	(%rcx), %rcx
	movq	%rcx, (%rax)
	movq	24(%rsp), %rcx
	movq	8(%rcx), %rcx
	movq	%rcx, 8(%rax)
	movq	8(%rsp), %rcx
	movq	(%rcx), %rcx
	movq	%rcx, 16(%rax)
	movq	8(%rsp), %rcx
	movq	8(%rcx), %rcx
	movq	%rcx, 24(%rax)
	movq	8(%rsp), %rdx
	movq	16(%rdx), %rdx
	movq	%rdx, 32(%rax)
	movq	8(%rsp), %rdx
	movq	24(%rdx), %rdx
	movq	%rdx, 40(%rax)
	movq	8(%rsp), %rdx
	movq	32(%rdx), %rdx
	movq	%rdx, 48(%rax)
	movq	8(%rsp), %rdx
	movq	40(%rdx), %rdx
	movq	%rdx, 56(%rax)
	movq	%rcx, 24(%rbx)
	movl	$64, %edi
	callq	_malloc
	movq	24(%rsp), %rcx
	movq	(%rcx), %rcx
	movq	%rcx, (%rax)
	movq	24(%rsp), %rcx
	movq	8(%rcx), %rcx
	movq	%rcx, 8(%rax)
	movq	8(%rsp), %rcx
	movq	(%rcx), %rcx
	movq	%rcx, 16(%rax)
	movq	8(%rsp), %rcx
	movq	8(%rcx), %rcx
	movq	%rcx, 24(%rax)
	movq	8(%rsp), %rcx
	movq	16(%rcx), %rcx
	movq	%rcx, 32(%rax)
	movq	8(%rsp), %rdx
	movq	24(%rdx), %rdx
	movq	%rdx, 40(%rax)
	movq	8(%rsp), %rdx
	movq	32(%rdx), %rdx
	movq	%rdx, 48(%rax)
	movq	8(%rsp), %rdx
	movq	40(%rdx), %rdx
	movq	%rdx, 56(%rax)
	movq	%rcx, 32(%rbx)
	movl	$64, %edi
	callq	_malloc
	movq	24(%rsp), %rcx
	movq	(%rcx), %rcx
	movq	%rcx, (%rax)
	movq	24(%rsp), %rcx
	movq	8(%rcx), %rcx
	movq	%rcx, 8(%rax)
	movq	8(%rsp), %rcx
	movq	(%rcx), %rcx
	movq	%rcx, 16(%rax)
	movq	8(%rsp), %rcx
	movq	8(%rcx), %rcx
	movq	%rcx, 24(%rax)
	movq	8(%rsp), %rcx
	movq	16(%rcx), %rcx
	movq	%rcx, 32(%rax)
	movq	8(%rsp), %rcx
	movq	24(%rcx), %rcx
	movq	%rcx, 40(%rax)
	movq	8(%rsp), %rdx
	movq	32(%rdx), %rdx
	movq	%rdx, 48(%rax)
	movq	8(%rsp), %rdx
	movq	40(%rdx), %rdx
	movq	%rdx, 56(%rax)
	movq	%rcx, 40(%rbx)
	movl	$64, %edi
	callq	_malloc
	movq	24(%rsp), %rcx
	movq	(%rcx), %rcx
	movq	%rcx, (%rax)
	movq	24(%rsp), %rcx
	movq	8(%rcx), %rcx
	movq	%rcx, 8(%rax)
	movq	8(%rsp), %rcx
	movq	(%rcx), %rcx
	movq	%rcx, 16(%rax)
	movq	8(%rsp), %rcx
	movq	8(%rcx), %rcx
	movq	%rcx, 24(%rax)
	movq	8(%rsp), %rcx
	movq	16(%rcx), %rcx
	movq	%rcx, 32(%rax)
	movq	8(%rsp), %rcx
	movq	24(%rcx), %rcx
	movq	%rcx, 40(%rax)
	movq	8(%rsp), %rcx
	movq	32(%rcx), %rcx
	movq	%rcx, 48(%rax)
	movq	8(%rsp), %rdx
	movq	40(%rdx), %rdx
	movq	%rdx, 56(%rax)
	movq	%rcx, 48(%rbx)
	movl	$64, %edi
	callq	_malloc
	movq	24(%rsp), %rcx
	movq	(%rcx), %rcx
	movq	%rcx, (%rax)
	movq	24(%rsp), %rcx
	movq	8(%rcx), %rcx
	movq	%rcx, 8(%rax)
	movq	8(%rsp), %rcx
	movq	(%rcx), %rcx
	movq	%rcx, 16(%rax)
	movq	8(%rsp), %rcx
	movq	8(%rcx), %rcx
	movq	%rcx, 24(%rax)
	movq	8(%rsp), %rcx
	movq	16(%rcx), %rcx
	movq	%rcx, 32(%rax)
	movq	8(%rsp), %rcx
	movq	24(%rcx), %rcx
	movq	%rcx, 40(%rax)
	movq	8(%rsp), %rcx
	movq	32(%rcx), %rcx
	movq	%rcx, 48(%rax)
	movq	8(%rsp), %rcx
	movq	40(%rcx), %rcx
	movq	%rcx, 56(%rax)
	movq	%rcx, 56(%rbx)
	movq	40(%rsp), %rax
	movq	(%rax), %rax
	movq	%rax, 64(%rbx)
	movq	40(%rsp), %rax
	movq	8(%rax), %rax
	movq	%rax, 72(%rbx)
	movq	40(%rsp), %rcx
	movq	16(%rcx), %rcx
	movq	%rcx, 80(%rbx)
	movq	40(%rsp), %rcx
	movq	24(%rcx), %rcx
	movq	%rcx, 88(%rbx)
	movq	40(%rsp), %rcx
	movq	32(%rcx), %rcx
	movq	%rcx, 96(%rbx)
	movq	%rax, 72(%r15)
	movl	$104, %edi
	callq	_malloc
	movq	%rax, %rbx
	movl	$64, %edi
	callq	_malloc
	movq	24(%rsp), %rcx
	movq	(%rcx), %rcx
	movq	%rcx, (%rax)
	movq	24(%rsp), %rcx
	movq	8(%rcx), %rcx
	movq	%rcx, 8(%rax)
	movq	8(%rsp), %rcx
	movq	(%rcx), %rcx
	movq	%rcx, 16(%rax)
	movq	8(%rsp), %rcx
	movq	8(%rcx), %rcx
	movq	%rcx, 24(%rax)
	movq	8(%rsp), %rcx
	movq	16(%rcx), %rcx
	movq	%rcx, 32(%rax)
	movq	8(%rsp), %rcx
	movq	24(%rcx), %rcx
	movq	%rcx, 40(%rax)
	movq	8(%rsp), %rcx
	movq	32(%rcx), %rcx
	movq	%rcx, 48(%rax)
	movq	8(%rsp), %rcx
	movq	40(%rcx), %rcx
	movq	%rcx, 56(%rax)
	movq	(%rax), %rax
	movq	%rax, (%rbx)
	movl	$64, %edi
	callq	_malloc
	movq	24(%rsp), %rcx
	movq	(%rcx), %rcx
	movq	%rcx, (%rax)
	movq	24(%rsp), %rcx
	movq	8(%rcx), %rcx
	movq	%rcx, 8(%rax)
	movq	8(%rsp), %rcx
	movq	(%rcx), %rcx
	movq	%rcx, 16(%rax)
	movq	8(%rsp), %rcx
	movq	8(%rcx), %rcx
	movq	%rcx, 24(%rax)
	movq	8(%rsp), %rcx
	movq	16(%rcx), %rcx
	movq	%rcx, 32(%rax)
	movq	8(%rsp), %rcx
	movq	24(%rcx), %rcx
	movq	%rcx, 40(%rax)
	movq	8(%rsp), %rcx
	movq	32(%rcx), %rcx
	movq	%rcx, 48(%rax)
	movq	8(%rsp), %rcx
	movq	40(%rcx), %rcx
	movq	%rcx, 56(%rax)
	movq	8(%rax), %rax
	movq	%rax, 8(%rbx)
	movl	$64, %edi
	callq	_malloc
	movq	24(%rsp), %rcx
	movq	(%rcx), %rcx
	movq	%rcx, (%rax)
	movq	24(%rsp), %rcx
	movq	8(%rcx), %rcx
	movq	%rcx, 8(%rax)
	movq	8(%rsp), %rcx
	movq	(%rcx), %rcx
	movq	%rcx, 16(%rax)
	movq	8(%rsp), %rcx
	movq	8(%rcx), %rcx
	movq	%rcx, 24(%rax)
	movq	8(%rsp), %rcx
	movq	16(%rcx), %rcx
	movq	%rcx, 32(%rax)
	movq	8(%rsp), %rcx
	movq	24(%rcx), %rcx
	movq	%rcx, 40(%rax)
	movq	8(%rsp), %rcx
	movq	32(%rcx), %rcx
	movq	%rcx, 48(%rax)
	movq	8(%rsp), %rcx
	movq	40(%rcx), %rcx
	movq	%rcx, 56(%rax)
	movq	16(%rax), %rax
	movq	%rax, 16(%rbx)
	movl	$64, %edi
	callq	_malloc
	movq	24(%rsp), %rcx
	movq	(%rcx), %rcx
	movq	%rcx, (%rax)
	movq	24(%rsp), %rcx
	movq	8(%rcx), %rcx
	movq	%rcx, 8(%rax)
	movq	8(%rsp), %rcx
	movq	(%rcx), %rcx
	movq	%rcx, 16(%rax)
	movq	8(%rsp), %rcx
	movq	8(%rcx), %rcx
	movq	%rcx, 24(%rax)
	movq	8(%rsp), %rdx
	movq	16(%rdx), %rdx
	movq	%rdx, 32(%rax)
	movq	8(%rsp), %rdx
	movq	24(%rdx), %rdx
	movq	%rdx, 40(%rax)
	movq	8(%rsp), %rdx
	movq	32(%rdx), %rdx
	movq	%rdx, 48(%rax)
	movq	8(%rsp), %rdx
	movq	40(%rdx), %rdx
	movq	%rdx, 56(%rax)
	movq	%rcx, 24(%rbx)
	movl	$64, %edi
	callq	_malloc
	movq	24(%rsp), %rcx
	movq	(%rcx), %rcx
	movq	%rcx, (%rax)
	movq	24(%rsp), %rcx
	movq	8(%rcx), %rcx
	movq	%rcx, 8(%rax)
	movq	8(%rsp), %rcx
	movq	(%rcx), %rcx
	movq	%rcx, 16(%rax)
	movq	8(%rsp), %rcx
	movq	8(%rcx), %rcx
	movq	%rcx, 24(%rax)
	movq	8(%rsp), %rcx
	movq	16(%rcx), %rcx
	movq	%rcx, 32(%rax)
	movq	8(%rsp), %rdx
	movq	24(%rdx), %rdx
	movq	%rdx, 40(%rax)
	movq	8(%rsp), %rdx
	movq	32(%rdx), %rdx
	movq	%rdx, 48(%rax)
	movq	8(%rsp), %rdx
	movq	40(%rdx), %rdx
	movq	%rdx, 56(%rax)
	movq	%rcx, 32(%rbx)
	movl	$64, %edi
	callq	_malloc
	movq	24(%rsp), %rcx
	movq	(%rcx), %rcx
	movq	%rcx, (%rax)
	movq	24(%rsp), %rcx
	movq	8(%rcx), %rcx
	movq	%rcx, 8(%rax)
	movq	8(%rsp), %rcx
	movq	(%rcx), %rcx
	movq	%rcx, 16(%rax)
	movq	8(%rsp), %rcx
	movq	8(%rcx), %rcx
	movq	%rcx, 24(%rax)
	movq	8(%rsp), %rcx
	movq	16(%rcx), %rcx
	movq	%rcx, 32(%rax)
	movq	8(%rsp), %rcx
	movq	24(%rcx), %rcx
	movq	%rcx, 40(%rax)
	movq	8(%rsp), %rdx
	movq	32(%rdx), %rdx
	movq	%rdx, 48(%rax)
	movq	8(%rsp), %rdx
	movq	40(%rdx), %rdx
	movq	%rdx, 56(%rax)
	movq	%rcx, 40(%rbx)
	movl	$64, %edi
	callq	_malloc
	movq	24(%rsp), %rcx
	movq	(%rcx), %rcx
	movq	%rcx, (%rax)
	movq	24(%rsp), %rcx
	movq	8(%rcx), %rcx
	movq	%rcx, 8(%rax)
	movq	8(%rsp), %rcx
	movq	(%rcx), %rcx
	movq	%rcx, 16(%rax)
	movq	8(%rsp), %rcx
	movq	8(%rcx), %rcx
	movq	%rcx, 24(%rax)
	movq	8(%rsp), %rcx
	movq	16(%rcx), %rcx
	movq	%rcx, 32(%rax)
	movq	8(%rsp), %rcx
	movq	24(%rcx), %rcx
	movq	%rcx, 40(%rax)
	movq	8(%rsp), %rcx
	movq	32(%rcx), %rcx
	movq	%rcx, 48(%rax)
	movq	8(%rsp), %rdx
	movq	40(%rdx), %rdx
	movq	%rdx, 56(%rax)
	movq	%rcx, 48(%rbx)
	movl	$64, %edi
	callq	_malloc
	movq	24(%rsp), %rcx
	movq	(%rcx), %rcx
	movq	%rcx, (%rax)
	movq	24(%rsp), %rcx
	movq	8(%rcx), %rcx
	movq	%rcx, 8(%rax)
	movq	8(%rsp), %rcx
	movq	(%rcx), %rcx
	movq	%rcx, 16(%rax)
	movq	8(%rsp), %rcx
	movq	8(%rcx), %rcx
	movq	%rcx, 24(%rax)
	movq	8(%rsp), %rcx
	movq	16(%rcx), %rcx
	movq	%rcx, 32(%rax)
	movq	8(%rsp), %rcx
	movq	24(%rcx), %rcx
	movq	%rcx, 40(%rax)
	movq	8(%rsp), %rcx
	movq	32(%rcx), %rcx
	movq	%rcx, 48(%rax)
	movq	8(%rsp), %rcx
	movq	40(%rcx), %rcx
	movq	%rcx, 56(%rax)
	movq	%rcx, 56(%rbx)
	movq	40(%rsp), %rax
	movq	(%rax), %rax
	movq	%rax, 64(%rbx)
	movq	40(%rsp), %rax
	movq	8(%rax), %rax
	movq	%rax, 72(%rbx)
	movq	40(%rsp), %rax
	movq	16(%rax), %rax
	movq	%rax, 80(%rbx)
	movq	40(%rsp), %rcx
	movq	24(%rcx), %rcx
	movq	%rcx, 88(%rbx)
	movq	40(%rsp), %rcx
	movq	32(%rcx), %rcx
	movq	%rcx, 96(%rbx)
	movq	%rax, 80(%r15)
	movl	$104, %edi
	callq	_malloc
	movq	%rax, %rbx
	movl	$64, %edi
	callq	_malloc
	movq	24(%rsp), %rcx
	movq	(%rcx), %rcx
	movq	%rcx, (%rax)
	movq	24(%rsp), %rcx
	movq	8(%rcx), %rcx
	movq	%rcx, 8(%rax)
	movq	8(%rsp), %rcx
	movq	(%rcx), %rcx
	movq	%rcx, 16(%rax)
	movq	8(%rsp), %rcx
	movq	8(%rcx), %rcx
	movq	%rcx, 24(%rax)
	movq	8(%rsp), %rcx
	movq	16(%rcx), %rcx
	movq	%rcx, 32(%rax)
	movq	8(%rsp), %rcx
	movq	24(%rcx), %rcx
	movq	%rcx, 40(%rax)
	movq	8(%rsp), %rcx
	movq	32(%rcx), %rcx
	movq	%rcx, 48(%rax)
	movq	8(%rsp), %rcx
	movq	40(%rcx), %rcx
	movq	%rcx, 56(%rax)
	movq	(%rax), %rax
	movq	%rax, (%rbx)
	movl	$64, %edi
	callq	_malloc
	movq	24(%rsp), %rcx
	movq	(%rcx), %rcx
	movq	%rcx, (%rax)
	movq	24(%rsp), %rcx
	movq	8(%rcx), %rcx
	movq	%rcx, 8(%rax)
	movq	8(%rsp), %rcx
	movq	(%rcx), %rcx
	movq	%rcx, 16(%rax)
	movq	8(%rsp), %rcx
	movq	8(%rcx), %rcx
	movq	%rcx, 24(%rax)
	movq	8(%rsp), %rcx
	movq	16(%rcx), %rcx
	movq	%rcx, 32(%rax)
	movq	8(%rsp), %rcx
	movq	24(%rcx), %rcx
	movq	%rcx, 40(%rax)
	movq	8(%rsp), %rcx
	movq	32(%rcx), %rcx
	movq	%rcx, 48(%rax)
	movq	8(%rsp), %rcx
	movq	40(%rcx), %rcx
	movq	%rcx, 56(%rax)
	movq	8(%rax), %rax
	movq	%rax, 8(%rbx)
	movl	$64, %edi
	callq	_malloc
	movq	24(%rsp), %rcx
	movq	(%rcx), %rcx
	movq	%rcx, (%rax)
	movq	24(%rsp), %rcx
	movq	8(%rcx), %rcx
	movq	%rcx, 8(%rax)
	movq	8(%rsp), %rcx
	movq	(%rcx), %rcx
	movq	%rcx, 16(%rax)
	movq	8(%rsp), %rcx
	movq	8(%rcx), %rcx
	movq	%rcx, 24(%rax)
	movq	8(%rsp), %rcx
	movq	16(%rcx), %rcx
	movq	%rcx, 32(%rax)
	movq	8(%rsp), %rcx
	movq	24(%rcx), %rcx
	movq	%rcx, 40(%rax)
	movq	8(%rsp), %rcx
	movq	32(%rcx), %rcx
	movq	%rcx, 48(%rax)
	movq	8(%rsp), %rcx
	movq	40(%rcx), %rcx
	movq	%rcx, 56(%rax)
	movq	16(%rax), %rax
	movq	%rax, 16(%rbx)
	movl	$64, %edi
	callq	_malloc
	movq	24(%rsp), %rcx
	movq	(%rcx), %rcx
	movq	%rcx, (%rax)
	movq	24(%rsp), %rcx
	movq	8(%rcx), %rcx
	movq	%rcx, 8(%rax)
	movq	8(%rsp), %rcx
	movq	(%rcx), %rcx
	movq	%rcx, 16(%rax)
	movq	8(%rsp), %rcx
	movq	8(%rcx), %rcx
	movq	%rcx, 24(%rax)
	movq	8(%rsp), %rdx
	movq	16(%rdx), %rdx
	movq	%rdx, 32(%rax)
	movq	8(%rsp), %rdx
	movq	24(%rdx), %rdx
	movq	%rdx, 40(%rax)
	movq	8(%rsp), %rdx
	movq	32(%rdx), %rdx
	movq	%rdx, 48(%rax)
	movq	8(%rsp), %rdx
	movq	40(%rdx), %rdx
	movq	%rdx, 56(%rax)
	movq	%rcx, 24(%rbx)
	movl	$64, %edi
	callq	_malloc
	movq	24(%rsp), %rcx
	movq	(%rcx), %rcx
	movq	%rcx, (%rax)
	movq	24(%rsp), %rcx
	movq	8(%rcx), %rcx
	movq	%rcx, 8(%rax)
	movq	8(%rsp), %rcx
	movq	(%rcx), %rcx
	movq	%rcx, 16(%rax)
	movq	8(%rsp), %rcx
	movq	8(%rcx), %rcx
	movq	%rcx, 24(%rax)
	movq	8(%rsp), %rcx
	movq	16(%rcx), %rcx
	movq	%rcx, 32(%rax)
	movq	8(%rsp), %rdx
	movq	24(%rdx), %rdx
	movq	%rdx, 40(%rax)
	movq	8(%rsp), %rdx
	movq	32(%rdx), %rdx
	movq	%rdx, 48(%rax)
	movq	8(%rsp), %rdx
	movq	40(%rdx), %rdx
	movq	%rdx, 56(%rax)
	movq	%rcx, 32(%rbx)
	movl	$64, %edi
	callq	_malloc
	movq	24(%rsp), %rcx
	movq	(%rcx), %rcx
	movq	%rcx, (%rax)
	movq	24(%rsp), %rcx
	movq	8(%rcx), %rcx
	movq	%rcx, 8(%rax)
	movq	8(%rsp), %rcx
	movq	(%rcx), %rcx
	movq	%rcx, 16(%rax)
	movq	8(%rsp), %rcx
	movq	8(%rcx), %rcx
	movq	%rcx, 24(%rax)
	movq	8(%rsp), %rcx
	movq	16(%rcx), %rcx
	movq	%rcx, 32(%rax)
	movq	8(%rsp), %rcx
	movq	24(%rcx), %rcx
	movq	%rcx, 40(%rax)
	movq	8(%rsp), %rdx
	movq	32(%rdx), %rdx
	movq	%rdx, 48(%rax)
	movq	8(%rsp), %rdx
	movq	40(%rdx), %rdx
